	.file "/home/imhost/compilers-2021-spring-1/src/Parser.lama"

	.stabs "/home/imhost/compilers-2021-spring-1/src/Parser.lama",100,0,0,.Ltext

	.globl	global_parse

	.globl	initParser

	.data

string_1:	.string	"!!"

string_3:	.string	"!="

string_12:	.string	"%"

string_0:	.string	"&&"

string_16:	.string	"("

string_17:	.string	")"

string_10:	.string	"*"

string_8:	.string	"+"

string_15:	.string	","

string_9:	.string	"-"

string_11:	.string	"/"

string_14:	.string	":="

string_13:	.string	";"

string_4:	.string	"<"

string_5:	.string	"<="

string_2:	.string	"=="

string_6:	.string	">"

string_7:	.string	">="

_init:	.int 0

	.section custom_data,"aw",@progbits

filler:	.fill	12, 4, 1

	.stabs "cycle:S1",40,0,0,global_cycle

global_cycle:	.int	1

	.stabs "exp:S1",40,0,0,global_exp

global_exp:	.int	1

	.stabs "exprIf:S1",40,0,0,global_exprIf

global_exprIf:	.int	1

	.stabs "exprsList:S1",40,0,0,global_exprsList

global_exprsList:	.int	1

	.stabs "parse:S1",40,0,0,global_parse

global_parse:	.int	1

	.stabs "primary:S1",40,0,0,global_primary

global_primary:	.int	1

	.stabs "stmt:S1",40,0,0,global_stmt

global_stmt:	.int	1

	.text

.Ltext:

	.stabs "data:t1=r1;0;4294967295;",128,0,0,0

# PUBLIC ("initParser") / 

# PUBLIC ("global_parse") / 

# EXTERN ("Lfix") / 

# EXTERN ("Li__Infix_35") / 

# EXTERN ("Li__Infix_36") / 

# EXTERN ("Lid") / 

# EXTERN ("Lfilter") / 

# EXTERN ("Lremove") / 

# EXTERN ("Lunzip") / 

# EXTERN ("Lzip") / 

# EXTERN ("LdeepFlatten") / 

# EXTERN ("Lflatten") / 

# EXTERN ("Lfind") / 

# EXTERN ("Lassoc") / 

# EXTERN ("Lreverse") / 

# EXTERN ("Li__Infix_434343") / 

# EXTERN ("Lmap") / 

# EXTERN ("Liter") / 

# EXTERN ("Lfoldr") / 

# EXTERN ("Lfoldl") / 

# EXTERN ("Lsize") / 

# EXTERN ("global_lident") / 

# EXTERN ("global_end") / 

# EXTERN ("global_decimal") / 

# EXTERN ("global_kFor") / 

# EXTERN ("global_kOd") / 

# EXTERN ("global_kDo") / 

# EXTERN ("global_kWhile") / 

# EXTERN ("global_kFi") / 

# EXTERN ("global_kElif") / 

# EXTERN ("global_kElse") / 

# EXTERN ("global_kThen") / 

# EXTERN ("global_kIf") / 

# EXTERN ("global_kSkip") / 

# EXTERN ("global_kWrite") / 

# EXTERN ("global_kRead") / 

# EXTERN ("Ls") / 

# EXTERN ("global_rFor") / 

# EXTERN ("global_rOd") / 

# EXTERN ("global_rDo") / 

# EXTERN ("global_rWhile") / 

# EXTERN ("global_rFi") / 

# EXTERN ("global_rElif") / 

# EXTERN ("global_rElse") / 

# EXTERN ("global_rThen") / 

# EXTERN ("global_rIf") / 

# EXTERN ("global_rSkip") / 

# EXTERN ("global_rWrite") / 

# EXTERN ("global_rRead") / 

# EXTERN ("global_rLident") / 

# EXTERN ("global_rDecimal") / 

# EXTERN ("global_rWhiteSpace") / 

# EXTERN ("Lexpr") / 

# EXTERN ("Lright") / 

# EXTERN ("Lleft") / 

# EXTERN ("LparseString") / 

# EXTERN ("Lparse") / 

# EXTERN ("LshowStream") / 

# EXTERN ("Lobserve") / 

# EXTERN ("Llist0") / 

# EXTERN ("Llist") / 

# EXTERN ("Llist0By") / 

# EXTERN ("LlistBy") / 

# EXTERN ("Lrep") / 

# EXTERN ("Lrep0") / 

# EXTERN ("Lopt") / 

# EXTERN ("Lbypass") / 

# EXTERN ("Llift") / 

# EXTERN ("Li__Infix_64") / 

# EXTERN ("Li__Infix_12462") / 

# EXTERN ("Li__Infix_124") / 

# EXTERN ("Lseq") / 

# EXTERN ("Lalt") / 

# EXTERN ("Lempty") / 

# EXTERN ("Leof") / 

# EXTERN ("Lloc") / 

# EXTERN ("Ltoken") / 

# EXTERN ("Lmemo") / 

# EXTERN ("LinitOstap") / 

# EXTERN ("LlogOn") / 

# EXTERN ("LtagHash") / 

# EXTERN ("LflatCompare") / 

# EXTERN ("LcompareTags") / 

# EXTERN ("LkindOf") / 

# EXTERN ("Ltime") / 

# EXTERN ("Lrandom") / 

# EXTERN ("LdisableGC") / 

# EXTERN ("LenableGC") / 

# EXTERN ("Ls__Infix_37") / 

# EXTERN ("Ls__Infix_47") / 

# EXTERN ("Ls__Infix_42") / 

# EXTERN ("Ls__Infix_45") / 

# EXTERN ("Ls__Infix_43") / 

# EXTERN ("Ls__Infix_62") / 

# EXTERN ("Ls__Infix_6261") / 

# EXTERN ("Ls__Infix_60") / 

# EXTERN ("Ls__Infix_6061") / 

# EXTERN ("Ls__Infix_3361") / 

# EXTERN ("Ls__Infix_6161") / 

# EXTERN ("Ls__Infix_3838") / 

# EXTERN ("Ls__Infix_3333") / 

# EXTERN ("Ls__Infix_58") / 

# EXTERN ("Li__Infix_4343") / 

# EXTERN ("Lcompare") / 

# EXTERN ("Lwrite") / 

# EXTERN ("Lread") / 

# EXTERN ("Lfailure") / 

# EXTERN ("Lfwrite") / 

# EXTERN ("Lfread") / 

# EXTERN ("Lfclose") / 

# EXTERN ("Lfopen") / 

# EXTERN ("Lfprintf") / 

# EXTERN ("Lprintf") / 

# EXTERN ("LmakeString") / 

# EXTERN ("Lsprintf") / 

# EXTERN ("LregexpMatch") / 

# EXTERN ("Lregexp") / 

# EXTERN ("Lsubstring") / 

# EXTERN ("LmatchSubString") / 

# EXTERN ("Lstringcat") / 

# EXTERN ("LreadLine") / 

# EXTERN ("Ltl") / 

# EXTERN ("Lhd") / 

# EXTERN ("Lsnd") / 

# EXTERN ("Lfst") / 

# EXTERN ("Lhash") / 

# EXTERN ("Lclone") / 

# EXTERN ("Llength") / 

# EXTERN ("Lstring") / 

# EXTERN ("LmakeArray") / 

# EXTERN ("LstringInt") / 

# EXTERN ("global_sysargs") / 

# EXTERN ("Lsystem") / 

# EXTERN ("LgetEnv") / 

# EXTERN ("Lassert") / 

# EXTERN ("Lexpr") / 

# EXTERN ("Lright") / 

# EXTERN ("Lleft") / 

# EXTERN ("LparseString") / 

# EXTERN ("Lparse") / 

# EXTERN ("LshowStream") / 

# EXTERN ("Lobserve") / 

# EXTERN ("Llist0") / 

# EXTERN ("Llist") / 

# EXTERN ("Llist0By") / 

# EXTERN ("LlistBy") / 

# EXTERN ("Lrep") / 

# EXTERN ("Lrep0") / 

# EXTERN ("Lopt") / 

# EXTERN ("Lbypass") / 

# EXTERN ("Llift") / 

# EXTERN ("Li__Infix_64") / 

# EXTERN ("Li__Infix_12462") / 

# EXTERN ("Li__Infix_124") / 

# EXTERN ("Lseq") / 

# EXTERN ("Lalt") / 

# EXTERN ("Lempty") / 

# EXTERN ("Leof") / 

# EXTERN ("Lloc") / 

# EXTERN ("Ltoken") / 

# EXTERN ("Lmemo") / 

# EXTERN ("LinitOstap") / 

# EXTERN ("LlogOn") / 

# EXTERN ("Lexpr") / 

# EXTERN ("Lright") / 

# EXTERN ("Lleft") / 

# EXTERN ("LparseString") / 

# EXTERN ("Lparse") / 

# EXTERN ("LshowStream") / 

# EXTERN ("Lobserve") / 

# EXTERN ("Llist0") / 

# EXTERN ("Llist") / 

# EXTERN ("Llist0By") / 

# EXTERN ("LlistBy") / 

# EXTERN ("Lrep") / 

# EXTERN ("Lrep0") / 

# EXTERN ("Lopt") / 

# EXTERN ("Lbypass") / 

# EXTERN ("Llift") / 

# EXTERN ("Li__Infix_64") / 

# EXTERN ("Li__Infix_12462") / 

# EXTERN ("Li__Infix_124") / 

# EXTERN ("Lseq") / 

# EXTERN ("Lalt") / 

# EXTERN ("Lempty") / 

# EXTERN ("Leof") / 

# EXTERN ("Lloc") / 

# EXTERN ("Ltoken") / 

# EXTERN ("Lmemo") / 

# EXTERN ("LinitOstap") / 

# EXTERN ("LlogOn") / 

# EXTERN ("Lexpr") / 

# EXTERN ("Lright") / 

# EXTERN ("Lleft") / 

# EXTERN ("LparseString") / 

# EXTERN ("Lparse") / 

# EXTERN ("LshowStream") / 

# EXTERN ("Lobserve") / 

# EXTERN ("Llist0") / 

# EXTERN ("Llist") / 

# EXTERN ("Llist0By") / 

# EXTERN ("LlistBy") / 

# EXTERN ("Lrep") / 

# EXTERN ("Lrep0") / 

# EXTERN ("Lopt") / 

# EXTERN ("Lbypass") / 

# EXTERN ("Llift") / 

# EXTERN ("Li__Infix_64") / 

# EXTERN ("Li__Infix_12462") / 

# EXTERN ("Li__Infix_124") / 

# EXTERN ("Lseq") / 

# EXTERN ("Lalt") / 

# EXTERN ("Lempty") / 

# EXTERN ("Leof") / 

# EXTERN ("Lloc") / 

# EXTERN ("Ltoken") / 

# EXTERN ("Lmemo") / 

# EXTERN ("LinitOstap") / 

# EXTERN ("LlogOn") / 

# EXTERN ("Lexpr") / 

# EXTERN ("Lright") / 

# EXTERN ("Lleft") / 

# EXTERN ("LparseString") / 

# EXTERN ("Lparse") / 

# EXTERN ("LshowStream") / 

# EXTERN ("Lobserve") / 

# EXTERN ("Llist0") / 

# EXTERN ("Llist") / 

# EXTERN ("Llist0By") / 

# EXTERN ("LlistBy") / 

# EXTERN ("Lrep") / 

# EXTERN ("Lrep0") / 

# EXTERN ("Lopt") / 

# EXTERN ("Lbypass") / 

# EXTERN ("Llift") / 

# EXTERN ("Li__Infix_64") / 

# EXTERN ("Li__Infix_12462") / 

# EXTERN ("Li__Infix_124") / 

# EXTERN ("Lseq") / 

# EXTERN ("Lalt") / 

# EXTERN ("Lempty") / 

# EXTERN ("Leof") / 

# EXTERN ("Lloc") / 

# EXTERN ("Ltoken") / 

# EXTERN ("Lmemo") / 

# EXTERN ("LinitOstap") / 

# EXTERN ("LlogOn") / 

# EXTERN ("Lexpr") / 

# EXTERN ("Lright") / 

# EXTERN ("Lleft") / 

# EXTERN ("LparseString") / 

# EXTERN ("Lparse") / 

# EXTERN ("LshowStream") / 

# EXTERN ("Lobserve") / 

# EXTERN ("Llist0") / 

# EXTERN ("Llist") / 

# EXTERN ("Llist0By") / 

# EXTERN ("LlistBy") / 

# EXTERN ("Lrep") / 

# EXTERN ("Lrep0") / 

# EXTERN ("Lopt") / 

# EXTERN ("Lbypass") / 

# EXTERN ("Llift") / 

# EXTERN ("Li__Infix_64") / 

# EXTERN ("Li__Infix_12462") / 

# EXTERN ("Li__Infix_124") / 

# EXTERN ("Lseq") / 

# EXTERN ("Lalt") / 

# EXTERN ("Lempty") / 

# EXTERN ("Leof") / 

# EXTERN ("Lloc") / 

# EXTERN ("Ltoken") / 

# EXTERN ("Lmemo") / 

# EXTERN ("LinitOstap") / 

# EXTERN ("LlogOn") / 

# EXTERN ("Lexpr") / 

# EXTERN ("Lright") / 

# EXTERN ("Lleft") / 

# EXTERN ("LparseString") / 

# EXTERN ("Lparse") / 

# EXTERN ("LshowStream") / 

# EXTERN ("Lobserve") / 

# EXTERN ("Llist0") / 

# EXTERN ("Llist") / 

# EXTERN ("Llist0By") / 

# EXTERN ("LlistBy") / 

# EXTERN ("Lrep") / 

# EXTERN ("Lrep0") / 

# EXTERN ("Lopt") / 

# EXTERN ("Lbypass") / 

# EXTERN ("Llift") / 

# EXTERN ("Li__Infix_64") / 

# EXTERN ("Li__Infix_12462") / 

# EXTERN ("Li__Infix_124") / 

# EXTERN ("Lseq") / 

# EXTERN ("Lalt") / 

# EXTERN ("Lempty") / 

# EXTERN ("Leof") / 

# EXTERN ("Lloc") / 

# EXTERN ("Ltoken") / 

# EXTERN ("Lmemo") / 

# EXTERN ("LinitOstap") / 

# EXTERN ("LlogOn") / 

# EXTERN ("Lexpr") / 

# EXTERN ("Lright") / 

# EXTERN ("Lleft") / 

# EXTERN ("LparseString") / 

# EXTERN ("Lparse") / 

# EXTERN ("LshowStream") / 

# EXTERN ("Lobserve") / 

# EXTERN ("Llist0") / 

# EXTERN ("Llist") / 

# EXTERN ("Llist0By") / 

# EXTERN ("LlistBy") / 

# EXTERN ("Lrep") / 

# EXTERN ("Lrep0") / 

# EXTERN ("Lopt") / 

# EXTERN ("Lbypass") / 

# EXTERN ("Llift") / 

# EXTERN ("Li__Infix_64") / 

# EXTERN ("Li__Infix_12462") / 

# EXTERN ("Li__Infix_124") / 

# EXTERN ("Lseq") / 

# EXTERN ("Lalt") / 

# EXTERN ("Lempty") / 

# EXTERN ("Leof") / 

# EXTERN ("Lloc") / 

# EXTERN ("Ltoken") / 

# EXTERN ("Lmemo") / 

# EXTERN ("LinitOstap") / 

# EXTERN ("LlogOn") / 

# EXTERN ("Lexpr") / 

# EXTERN ("Lright") / 

# EXTERN ("Lleft") / 

# EXTERN ("LparseString") / 

# EXTERN ("Lparse") / 

# EXTERN ("LshowStream") / 

# EXTERN ("Lobserve") / 

# EXTERN ("Llist0") / 

# EXTERN ("Llist") / 

# EXTERN ("Llist0By") / 

# EXTERN ("LlistBy") / 

# EXTERN ("Lrep") / 

# EXTERN ("Lrep0") / 

# EXTERN ("Lopt") / 

# EXTERN ("Lbypass") / 

# EXTERN ("Llift") / 

# EXTERN ("Li__Infix_64") / 

# EXTERN ("Li__Infix_12462") / 

# EXTERN ("Li__Infix_124") / 

# EXTERN ("Lseq") / 

# EXTERN ("Lalt") / 

# EXTERN ("Lempty") / 

# EXTERN ("Leof") / 

# EXTERN ("Lloc") / 

# EXTERN ("Ltoken") / 

# EXTERN ("Lmemo") / 

# EXTERN ("LinitOstap") / 

# EXTERN ("LlogOn") / 

# EXTERN ("Lexpr") / 

# EXTERN ("Lright") / 

# EXTERN ("Lleft") / 

# EXTERN ("LparseString") / 

# EXTERN ("Lparse") / 

# EXTERN ("LshowStream") / 

# EXTERN ("Lobserve") / 

# EXTERN ("Llist0") / 

# EXTERN ("Llist") / 

# EXTERN ("Llist0By") / 

# EXTERN ("LlistBy") / 

# EXTERN ("Lrep") / 

# EXTERN ("Lrep0") / 

# EXTERN ("Lopt") / 

# EXTERN ("Lbypass") / 

# EXTERN ("Llift") / 

# EXTERN ("Li__Infix_64") / 

# EXTERN ("Li__Infix_12462") / 

# EXTERN ("Li__Infix_124") / 

# EXTERN ("Lseq") / 

# EXTERN ("Lalt") / 

# EXTERN ("Lempty") / 

# EXTERN ("Leof") / 

# EXTERN ("Lloc") / 

# EXTERN ("Ltoken") / 

# EXTERN ("Lmemo") / 

# EXTERN ("LinitOstap") / 

# EXTERN ("LlogOn") / 

# EXTERN ("Lexpr") / 

# EXTERN ("Lright") / 

# EXTERN ("Lleft") / 

# EXTERN ("LparseString") / 

# EXTERN ("Lparse") / 

# EXTERN ("LshowStream") / 

# EXTERN ("Lobserve") / 

# EXTERN ("Llist0") / 

# EXTERN ("Llist") / 

# EXTERN ("Llist0By") / 

# EXTERN ("LlistBy") / 

# EXTERN ("Lrep") / 

# EXTERN ("Lrep0") / 

# EXTERN ("Lopt") / 

# EXTERN ("Lbypass") / 

# EXTERN ("Llift") / 

# EXTERN ("Li__Infix_64") / 

# EXTERN ("Li__Infix_12462") / 

# EXTERN ("Li__Infix_124") / 

# EXTERN ("Lseq") / 

# EXTERN ("Lalt") / 

# EXTERN ("Lempty") / 

# EXTERN ("Leof") / 

# EXTERN ("Lloc") / 

# EXTERN ("Ltoken") / 

# EXTERN ("Lmemo") / 

# EXTERN ("LinitOstap") / 

# EXTERN ("LlogOn") / 

# LABEL ("initParser") / 

initParser:

# BEGIN ("initParser", 0, 0, [], [], []) / 

	.type initParser, @function

	.stabs "initParser:F1",36,0,0,initParser

	.cfi_startproc

	movl	_init,	%eax
	test	%eax,	%eax
	jz	_continue
	ret
_continue:

	movl	$1,	_init
	pushl	%ebp
	.cfi_def_cfa_offset	8

	.cfi_offset 5, -8

	movl	%esp,	%ebp
	.cfi_def_cfa_register	5

	subl	$LinitParser_SIZE,	%esp
	movl	%esp,	%edi
	movl	$filler,	%esi
	movl	$LSinitParser_SIZE,	%ecx
	rep movsl	
	call	initOstap
	call	initOstap
	call	initOstap
	call	initOstap
	call	initOstap
	call	initOstap
	call	initOstap
	call	initOstap
	call	initOstap
	call	initOstap
	call	initOstap
	call	initLexer
	call	initList
	call	initFun
# SLABEL ("L1") / 

L1:

# SEXP ("Left", 0) / 

	movl	$19964713,	%ebx
	pushl	%ebx
	pushl	$3
	call	Bsexp
	addl	$8,	%esp
	movl	%eax,	%ebx
# LINE (15) / 

	.stabn 68,0,15,0

	.stabn 68,0,15,.L0-initParser

.L0:

# STRING ("&&") / 

	movl	$string_0,	%ecx
	pushl	%ebx
	pushl	%ecx
	call	Bstring
	addl	$4,	%esp
	popl	%ebx
	movl	%eax,	%ecx
# CONST (0) / 

	movl	$1,	%esi
# SEXP ("cons", 2) / 

	movl	$1697575,	%edi
	pushl	%ebx
	pushl	%edi
	pushl	%esi
	pushl	%ecx
	pushl	$7
	call	Bsexp
	addl	$16,	%esp
	popl	%ebx
	movl	%eax,	%ecx
# CALL ("LfuncExprSymb", 1, false) / 

	pushl	%ebx
	pushl	%ecx
	call	LfuncExprSymb
	addl	$4,	%esp
	popl	%ebx
	movl	%eax,	%ecx
# CALL (".array", 2, false) / 

	pushl	%ecx
	pushl	%ebx
	pushl	$5
	call	Barray
	addl	$12,	%esp
	movl	%eax,	%ebx
# SEXP ("Left", 0) / 

	movl	$19964713,	%ecx
	pushl	%ebx
	pushl	%ecx
	pushl	$3
	call	Bsexp
	addl	$8,	%esp
	popl	%ebx
	movl	%eax,	%ecx
# LINE (16) / 

	.stabn 68,0,16,.L1-initParser

.L1:

# STRING ("!!") / 

	movl	$string_1,	%esi
	pushl	%ebx
	pushl	%ecx
	pushl	%esi
	call	Bstring
	addl	$4,	%esp
	popl	%ecx
	popl	%ebx
	movl	%eax,	%esi
# CONST (0) / 

	movl	$1,	%edi
# SEXP ("cons", 2) / 

	movl	$1697575,	-4(%ebp)
	pushl	%ebx
	pushl	%ecx
	pushl	-4(%ebp)
	pushl	%edi
	pushl	%esi
	pushl	$7
	call	Bsexp
	addl	$16,	%esp
	popl	%ecx
	popl	%ebx
	movl	%eax,	%esi
# CALL ("LfuncExprSymb", 1, false) / 

	pushl	%ebx
	pushl	%ecx
	pushl	%esi
	call	LfuncExprSymb
	addl	$4,	%esp
	popl	%ecx
	popl	%ebx
	movl	%eax,	%esi
# CALL (".array", 2, false) / 

	pushl	%ebx
	pushl	%esi
	pushl	%ecx
	pushl	$5
	call	Barray
	addl	$12,	%esp
	popl	%ebx
	movl	%eax,	%ecx
# SEXP ("Nona", 0) / 

	movl	$21096195,	%esi
	pushl	%ebx
	pushl	%ecx
	pushl	%esi
	pushl	$3
	call	Bsexp
	addl	$8,	%esp
	popl	%ecx
	popl	%ebx
	movl	%eax,	%esi
# LINE (17) / 

	.stabn 68,0,17,.L2-initParser

.L2:

# STRING ("==") / 

	movl	$string_2,	%edi
	pushl	%ebx
	pushl	%ecx
	pushl	%esi
	pushl	%edi
	call	Bstring
	addl	$4,	%esp
	popl	%esi
	popl	%ecx
	popl	%ebx
	movl	%eax,	%edi
# CONST (0) / 

	movl	$1,	-4(%ebp)
# SEXP ("cons", 2) / 

	movl	$1697575,	-8(%ebp)
	pushl	%ebx
	pushl	%ecx
	pushl	%esi
	pushl	-8(%ebp)
	pushl	-4(%ebp)
	pushl	%edi
	pushl	$7
	call	Bsexp
	addl	$16,	%esp
	popl	%esi
	popl	%ecx
	popl	%ebx
	movl	%eax,	%edi
# CALL ("LfuncExprSymb", 1, false) / 

	pushl	%ebx
	pushl	%ecx
	pushl	%esi
	pushl	%edi
	call	LfuncExprSymb
	addl	$4,	%esp
	popl	%esi
	popl	%ecx
	popl	%ebx
	movl	%eax,	%edi
# CALL (".array", 2, false) / 

	pushl	%ebx
	pushl	%ecx
	pushl	%edi
	pushl	%esi
	pushl	$5
	call	Barray
	addl	$12,	%esp
	popl	%ecx
	popl	%ebx
	movl	%eax,	%esi
# SEXP ("Nona", 0) / 

	movl	$21096195,	%edi
	pushl	%ebx
	pushl	%ecx
	pushl	%esi
	pushl	%edi
	pushl	$3
	call	Bsexp
	addl	$8,	%esp
	popl	%esi
	popl	%ecx
	popl	%ebx
	movl	%eax,	%edi
# LINE (18) / 

	.stabn 68,0,18,.L3-initParser

.L3:

# STRING ("!=") / 

	movl	$string_3,	-4(%ebp)
	pushl	%ebx
	pushl	%ecx
	pushl	%esi
	pushl	%edi
	pushl	-4(%ebp)
	call	Bstring
	addl	$4,	%esp
	popl	%edi
	popl	%esi
	popl	%ecx
	popl	%ebx
	movl	%eax,	-4(%ebp)
# CONST (0) / 

	movl	$1,	-8(%ebp)
# SEXP ("cons", 2) / 

	movl	$1697575,	-12(%ebp)
	pushl	%ebx
	pushl	%ecx
	pushl	%esi
	pushl	%edi
	pushl	-12(%ebp)
	pushl	-8(%ebp)
	pushl	-4(%ebp)
	pushl	$7
	call	Bsexp
	addl	$16,	%esp
	popl	%edi
	popl	%esi
	popl	%ecx
	popl	%ebx
	movl	%eax,	-4(%ebp)
# CALL ("LfuncExprSymb", 1, false) / 

	pushl	%ebx
	pushl	%ecx
	pushl	%esi
	pushl	%edi
	pushl	-4(%ebp)
	call	LfuncExprSymb
	addl	$4,	%esp
	popl	%edi
	popl	%esi
	popl	%ecx
	popl	%ebx
	movl	%eax,	-4(%ebp)
# CALL (".array", 2, false) / 

	pushl	%ebx
	pushl	%ecx
	pushl	%esi
	pushl	-4(%ebp)
	pushl	%edi
	pushl	$5
	call	Barray
	addl	$12,	%esp
	popl	%esi
	popl	%ecx
	popl	%ebx
	movl	%eax,	%edi
# SEXP ("Nona", 0) / 

	movl	$21096195,	-4(%ebp)
	pushl	%ebx
	pushl	%ecx
	pushl	%esi
	pushl	%edi
	pushl	-4(%ebp)
	pushl	$3
	call	Bsexp
	addl	$8,	%esp
	popl	%edi
	popl	%esi
	popl	%ecx
	popl	%ebx
	movl	%eax,	-4(%ebp)
# LINE (19) / 

	.stabn 68,0,19,.L4-initParser

.L4:

# STRING ("<") / 

	movl	$string_4,	-8(%ebp)
	pushl	%ebx
	pushl	%ecx
	pushl	%esi
	pushl	%edi
	pushl	-8(%ebp)
	call	Bstring
	addl	$4,	%esp
	popl	%edi
	popl	%esi
	popl	%ecx
	popl	%ebx
	movl	%eax,	-8(%ebp)
# CONST (0) / 

	movl	$1,	-12(%ebp)
# SEXP ("cons", 2) / 

	movl	$1697575,	-16(%ebp)
	pushl	%ebx
	pushl	%ecx
	pushl	%esi
	pushl	%edi
	pushl	-16(%ebp)
	pushl	-12(%ebp)
	pushl	-8(%ebp)
	pushl	$7
	call	Bsexp
	addl	$16,	%esp
	popl	%edi
	popl	%esi
	popl	%ecx
	popl	%ebx
	movl	%eax,	-8(%ebp)
# CALL ("LfuncExprSymb", 1, false) / 

	pushl	%ebx
	pushl	%ecx
	pushl	%esi
	pushl	%edi
	pushl	-8(%ebp)
	call	LfuncExprSymb
	addl	$4,	%esp
	popl	%edi
	popl	%esi
	popl	%ecx
	popl	%ebx
	movl	%eax,	-8(%ebp)
# CALL (".array", 2, false) / 

	pushl	%ebx
	pushl	%ecx
	pushl	%esi
	pushl	%edi
	pushl	-8(%ebp)
	pushl	-4(%ebp)
	pushl	$5
	call	Barray
	addl	$12,	%esp
	popl	%edi
	popl	%esi
	popl	%ecx
	popl	%ebx
	movl	%eax,	-4(%ebp)
# SEXP ("Nona", 0) / 

	movl	$21096195,	-8(%ebp)
	pushl	%ebx
	pushl	%ecx
	pushl	%esi
	pushl	%edi
	pushl	-8(%ebp)
	pushl	$3
	call	Bsexp
	addl	$8,	%esp
	popl	%edi
	popl	%esi
	popl	%ecx
	popl	%ebx
	movl	%eax,	-8(%ebp)
# LINE (20) / 

	.stabn 68,0,20,.L5-initParser

.L5:

# STRING ("<=") / 

	movl	$string_5,	-12(%ebp)
	pushl	%ebx
	pushl	%ecx
	pushl	%esi
	pushl	%edi
	pushl	-12(%ebp)
	call	Bstring
	addl	$4,	%esp
	popl	%edi
	popl	%esi
	popl	%ecx
	popl	%ebx
	movl	%eax,	-12(%ebp)
# CONST (0) / 

	movl	$1,	-16(%ebp)
# SEXP ("cons", 2) / 

	movl	$1697575,	-20(%ebp)
	pushl	%ebx
	pushl	%ecx
	pushl	%esi
	pushl	%edi
	pushl	-20(%ebp)
	pushl	-16(%ebp)
	pushl	-12(%ebp)
	pushl	$7
	call	Bsexp
	addl	$16,	%esp
	popl	%edi
	popl	%esi
	popl	%ecx
	popl	%ebx
	movl	%eax,	-12(%ebp)
# CALL ("LfuncExprSymb", 1, false) / 

	pushl	%ebx
	pushl	%ecx
	pushl	%esi
	pushl	%edi
	pushl	-12(%ebp)
	call	LfuncExprSymb
	addl	$4,	%esp
	popl	%edi
	popl	%esi
	popl	%ecx
	popl	%ebx
	movl	%eax,	-12(%ebp)
# CALL (".array", 2, false) / 

	pushl	%ebx
	pushl	%ecx
	pushl	%esi
	pushl	%edi
	pushl	-12(%ebp)
	pushl	-8(%ebp)
	pushl	$5
	call	Barray
	addl	$12,	%esp
	popl	%edi
	popl	%esi
	popl	%ecx
	popl	%ebx
	movl	%eax,	-8(%ebp)
# SEXP ("Nona", 0) / 

	movl	$21096195,	-12(%ebp)
	pushl	%ebx
	pushl	%ecx
	pushl	%esi
	pushl	%edi
	pushl	-12(%ebp)
	pushl	$3
	call	Bsexp
	addl	$8,	%esp
	popl	%edi
	popl	%esi
	popl	%ecx
	popl	%ebx
	movl	%eax,	-12(%ebp)
# LINE (21) / 

	.stabn 68,0,21,.L6-initParser

.L6:

# STRING (">") / 

	movl	$string_6,	-16(%ebp)
	pushl	%ebx
	pushl	%ecx
	pushl	%esi
	pushl	%edi
	pushl	-16(%ebp)
	call	Bstring
	addl	$4,	%esp
	popl	%edi
	popl	%esi
	popl	%ecx
	popl	%ebx
	movl	%eax,	-16(%ebp)
# CONST (0) / 

	movl	$1,	-20(%ebp)
# SEXP ("cons", 2) / 

	movl	$1697575,	-24(%ebp)
	pushl	%ebx
	pushl	%ecx
	pushl	%esi
	pushl	%edi
	pushl	-24(%ebp)
	pushl	-20(%ebp)
	pushl	-16(%ebp)
	pushl	$7
	call	Bsexp
	addl	$16,	%esp
	popl	%edi
	popl	%esi
	popl	%ecx
	popl	%ebx
	movl	%eax,	-16(%ebp)
# CALL ("LfuncExprSymb", 1, false) / 

	pushl	%ebx
	pushl	%ecx
	pushl	%esi
	pushl	%edi
	pushl	-16(%ebp)
	call	LfuncExprSymb
	addl	$4,	%esp
	popl	%edi
	popl	%esi
	popl	%ecx
	popl	%ebx
	movl	%eax,	-16(%ebp)
# CALL (".array", 2, false) / 

	pushl	%ebx
	pushl	%ecx
	pushl	%esi
	pushl	%edi
	pushl	-16(%ebp)
	pushl	-12(%ebp)
	pushl	$5
	call	Barray
	addl	$12,	%esp
	popl	%edi
	popl	%esi
	popl	%ecx
	popl	%ebx
	movl	%eax,	-12(%ebp)
# SEXP ("Nona", 0) / 

	movl	$21096195,	-16(%ebp)
	pushl	%ebx
	pushl	%ecx
	pushl	%esi
	pushl	%edi
	pushl	-16(%ebp)
	pushl	$3
	call	Bsexp
	addl	$8,	%esp
	popl	%edi
	popl	%esi
	popl	%ecx
	popl	%ebx
	movl	%eax,	-16(%ebp)
# LINE (22) / 

	.stabn 68,0,22,.L7-initParser

.L7:

# STRING (">=") / 

	movl	$string_7,	-20(%ebp)
	pushl	%ebx
	pushl	%ecx
	pushl	%esi
	pushl	%edi
	pushl	-20(%ebp)
	call	Bstring
	addl	$4,	%esp
	popl	%edi
	popl	%esi
	popl	%ecx
	popl	%ebx
	movl	%eax,	-20(%ebp)
# CONST (0) / 

	movl	$1,	-24(%ebp)
# SEXP ("cons", 2) / 

	movl	$1697575,	-28(%ebp)
	pushl	%ebx
	pushl	%ecx
	pushl	%esi
	pushl	%edi
	pushl	-28(%ebp)
	pushl	-24(%ebp)
	pushl	-20(%ebp)
	pushl	$7
	call	Bsexp
	addl	$16,	%esp
	popl	%edi
	popl	%esi
	popl	%ecx
	popl	%ebx
	movl	%eax,	-20(%ebp)
# CALL ("LfuncExprSymb", 1, false) / 

	pushl	%ebx
	pushl	%ecx
	pushl	%esi
	pushl	%edi
	pushl	-20(%ebp)
	call	LfuncExprSymb
	addl	$4,	%esp
	popl	%edi
	popl	%esi
	popl	%ecx
	popl	%ebx
	movl	%eax,	-20(%ebp)
# CALL (".array", 2, false) / 

	pushl	%ebx
	pushl	%ecx
	pushl	%esi
	pushl	%edi
	pushl	-20(%ebp)
	pushl	-16(%ebp)
	pushl	$5
	call	Barray
	addl	$12,	%esp
	popl	%edi
	popl	%esi
	popl	%ecx
	popl	%ebx
	movl	%eax,	-16(%ebp)
# SEXP ("Left", 0) / 

	movl	$19964713,	-20(%ebp)
	pushl	%ebx
	pushl	%ecx
	pushl	%esi
	pushl	%edi
	pushl	-20(%ebp)
	pushl	$3
	call	Bsexp
	addl	$8,	%esp
	popl	%edi
	popl	%esi
	popl	%ecx
	popl	%ebx
	movl	%eax,	-20(%ebp)
# LINE (23) / 

	.stabn 68,0,23,.L8-initParser

.L8:

# STRING ("+") / 

	movl	$string_8,	-24(%ebp)
	pushl	%ebx
	pushl	%ecx
	pushl	%esi
	pushl	%edi
	pushl	-24(%ebp)
	call	Bstring
	addl	$4,	%esp
	popl	%edi
	popl	%esi
	popl	%ecx
	popl	%ebx
	movl	%eax,	-24(%ebp)
# CONST (0) / 

	movl	$1,	-28(%ebp)
# SEXP ("cons", 2) / 

	movl	$1697575,	-32(%ebp)
	pushl	%ebx
	pushl	%ecx
	pushl	%esi
	pushl	%edi
	pushl	-32(%ebp)
	pushl	-28(%ebp)
	pushl	-24(%ebp)
	pushl	$7
	call	Bsexp
	addl	$16,	%esp
	popl	%edi
	popl	%esi
	popl	%ecx
	popl	%ebx
	movl	%eax,	-24(%ebp)
# CALL ("LfuncExprSymb", 1, false) / 

	pushl	%ebx
	pushl	%ecx
	pushl	%esi
	pushl	%edi
	pushl	-24(%ebp)
	call	LfuncExprSymb
	addl	$4,	%esp
	popl	%edi
	popl	%esi
	popl	%ecx
	popl	%ebx
	movl	%eax,	-24(%ebp)
# CALL (".array", 2, false) / 

	pushl	%ebx
	pushl	%ecx
	pushl	%esi
	pushl	%edi
	pushl	-24(%ebp)
	pushl	-20(%ebp)
	pushl	$5
	call	Barray
	addl	$12,	%esp
	popl	%edi
	popl	%esi
	popl	%ecx
	popl	%ebx
	movl	%eax,	-20(%ebp)
# SEXP ("Left", 0) / 

	movl	$19964713,	-24(%ebp)
	pushl	%ebx
	pushl	%ecx
	pushl	%esi
	pushl	%edi
	pushl	-24(%ebp)
	pushl	$3
	call	Bsexp
	addl	$8,	%esp
	popl	%edi
	popl	%esi
	popl	%ecx
	popl	%ebx
	movl	%eax,	-24(%ebp)
# LINE (24) / 

	.stabn 68,0,24,.L9-initParser

.L9:

# STRING ("-") / 

	movl	$string_9,	-28(%ebp)
	pushl	%ebx
	pushl	%ecx
	pushl	%esi
	pushl	%edi
	pushl	-28(%ebp)
	call	Bstring
	addl	$4,	%esp
	popl	%edi
	popl	%esi
	popl	%ecx
	popl	%ebx
	movl	%eax,	-28(%ebp)
# CONST (0) / 

	movl	$1,	-32(%ebp)
# SEXP ("cons", 2) / 

	movl	$1697575,	-36(%ebp)
	pushl	%ebx
	pushl	%ecx
	pushl	%esi
	pushl	%edi
	pushl	-36(%ebp)
	pushl	-32(%ebp)
	pushl	-28(%ebp)
	pushl	$7
	call	Bsexp
	addl	$16,	%esp
	popl	%edi
	popl	%esi
	popl	%ecx
	popl	%ebx
	movl	%eax,	-28(%ebp)
# CALL ("LfuncExprSymb", 1, false) / 

	pushl	%ebx
	pushl	%ecx
	pushl	%esi
	pushl	%edi
	pushl	-28(%ebp)
	call	LfuncExprSymb
	addl	$4,	%esp
	popl	%edi
	popl	%esi
	popl	%ecx
	popl	%ebx
	movl	%eax,	-28(%ebp)
# CALL (".array", 2, false) / 

	pushl	%ebx
	pushl	%ecx
	pushl	%esi
	pushl	%edi
	pushl	-28(%ebp)
	pushl	-24(%ebp)
	pushl	$5
	call	Barray
	addl	$12,	%esp
	popl	%edi
	popl	%esi
	popl	%ecx
	popl	%ebx
	movl	%eax,	-24(%ebp)
# SEXP ("Left", 0) / 

	movl	$19964713,	-28(%ebp)
	pushl	%ebx
	pushl	%ecx
	pushl	%esi
	pushl	%edi
	pushl	-28(%ebp)
	pushl	$3
	call	Bsexp
	addl	$8,	%esp
	popl	%edi
	popl	%esi
	popl	%ecx
	popl	%ebx
	movl	%eax,	-28(%ebp)
# LINE (25) / 

	.stabn 68,0,25,.L10-initParser

.L10:

# STRING ("*") / 

	movl	$string_10,	-32(%ebp)
	pushl	%ebx
	pushl	%ecx
	pushl	%esi
	pushl	%edi
	pushl	-32(%ebp)
	call	Bstring
	addl	$4,	%esp
	popl	%edi
	popl	%esi
	popl	%ecx
	popl	%ebx
	movl	%eax,	-32(%ebp)
# STRING ("/") / 

	movl	$string_11,	-36(%ebp)
	pushl	%ebx
	pushl	%ecx
	pushl	%esi
	pushl	%edi
	pushl	-36(%ebp)
	call	Bstring
	addl	$4,	%esp
	popl	%edi
	popl	%esi
	popl	%ecx
	popl	%ebx
	movl	%eax,	-36(%ebp)
# STRING ("%") / 

	movl	$string_12,	-40(%ebp)
	pushl	%ebx
	pushl	%ecx
	pushl	%esi
	pushl	%edi
	pushl	-40(%ebp)
	call	Bstring
	addl	$4,	%esp
	popl	%edi
	popl	%esi
	popl	%ecx
	popl	%ebx
	movl	%eax,	-40(%ebp)
# CONST (0) / 

	movl	$1,	-44(%ebp)
# SEXP ("cons", 2) / 

	movl	$1697575,	-48(%ebp)
	pushl	%ebx
	pushl	%ecx
	pushl	%esi
	pushl	%edi
	pushl	-48(%ebp)
	pushl	-44(%ebp)
	pushl	-40(%ebp)
	pushl	$7
	call	Bsexp
	addl	$16,	%esp
	popl	%edi
	popl	%esi
	popl	%ecx
	popl	%ebx
	movl	%eax,	-40(%ebp)
# SEXP ("cons", 2) / 

	movl	$1697575,	-44(%ebp)
	pushl	%ebx
	pushl	%ecx
	pushl	%esi
	pushl	%edi
	pushl	-44(%ebp)
	pushl	-40(%ebp)
	pushl	-36(%ebp)
	pushl	$7
	call	Bsexp
	addl	$16,	%esp
	popl	%edi
	popl	%esi
	popl	%ecx
	popl	%ebx
	movl	%eax,	-36(%ebp)
# SEXP ("cons", 2) / 

	movl	$1697575,	-40(%ebp)
	pushl	%ebx
	pushl	%ecx
	pushl	%esi
	pushl	%edi
	pushl	-40(%ebp)
	pushl	-36(%ebp)
	pushl	-32(%ebp)
	pushl	$7
	call	Bsexp
	addl	$16,	%esp
	popl	%edi
	popl	%esi
	popl	%ecx
	popl	%ebx
	movl	%eax,	-32(%ebp)
# CALL ("LfuncExprSymb", 1, false) / 

	pushl	%ebx
	pushl	%ecx
	pushl	%esi
	pushl	%edi
	pushl	-32(%ebp)
	call	LfuncExprSymb
	addl	$4,	%esp
	popl	%edi
	popl	%esi
	popl	%ecx
	popl	%ebx
	movl	%eax,	-32(%ebp)
# CALL (".array", 2, false) / 

	pushl	%ebx
	pushl	%ecx
	pushl	%esi
	pushl	%edi
	pushl	-32(%ebp)
	pushl	-28(%ebp)
	pushl	$5
	call	Barray
	addl	$12,	%esp
	popl	%edi
	popl	%esi
	popl	%ecx
	popl	%ebx
	movl	%eax,	-28(%ebp)
# CONST (0) / 

	movl	$1,	-32(%ebp)
# SEXP ("cons", 2) / 

	movl	$1697575,	-36(%ebp)
	pushl	%ebx
	pushl	%ecx
	pushl	%esi
	pushl	%edi
	pushl	-36(%ebp)
	pushl	-32(%ebp)
	pushl	-28(%ebp)
	pushl	$7
	call	Bsexp
	addl	$16,	%esp
	popl	%edi
	popl	%esi
	popl	%ecx
	popl	%ebx
	movl	%eax,	-28(%ebp)
# SEXP ("cons", 2) / 

	movl	$1697575,	-32(%ebp)
	pushl	%ebx
	pushl	%ecx
	pushl	%esi
	pushl	%edi
	pushl	-32(%ebp)
	pushl	-28(%ebp)
	pushl	-24(%ebp)
	pushl	$7
	call	Bsexp
	addl	$16,	%esp
	popl	%edi
	popl	%esi
	popl	%ecx
	popl	%ebx
	movl	%eax,	-24(%ebp)
# SEXP ("cons", 2) / 

	movl	$1697575,	-28(%ebp)
	pushl	%ebx
	pushl	%ecx
	pushl	%esi
	pushl	%edi
	pushl	-28(%ebp)
	pushl	-24(%ebp)
	pushl	-20(%ebp)
	pushl	$7
	call	Bsexp
	addl	$16,	%esp
	popl	%edi
	popl	%esi
	popl	%ecx
	popl	%ebx
	movl	%eax,	-20(%ebp)
# SEXP ("cons", 2) / 

	movl	$1697575,	-24(%ebp)
	pushl	%ebx
	pushl	%ecx
	pushl	%esi
	pushl	%edi
	pushl	-24(%ebp)
	pushl	-20(%ebp)
	pushl	-16(%ebp)
	pushl	$7
	call	Bsexp
	addl	$16,	%esp
	popl	%edi
	popl	%esi
	popl	%ecx
	popl	%ebx
	movl	%eax,	-16(%ebp)
# SEXP ("cons", 2) / 

	movl	$1697575,	-20(%ebp)
	pushl	%ebx
	pushl	%ecx
	pushl	%esi
	pushl	%edi
	pushl	-20(%ebp)
	pushl	-16(%ebp)
	pushl	-12(%ebp)
	pushl	$7
	call	Bsexp
	addl	$16,	%esp
	popl	%edi
	popl	%esi
	popl	%ecx
	popl	%ebx
	movl	%eax,	-12(%ebp)
# SEXP ("cons", 2) / 

	movl	$1697575,	-16(%ebp)
	pushl	%ebx
	pushl	%ecx
	pushl	%esi
	pushl	%edi
	pushl	-16(%ebp)
	pushl	-12(%ebp)
	pushl	-8(%ebp)
	pushl	$7
	call	Bsexp
	addl	$16,	%esp
	popl	%edi
	popl	%esi
	popl	%ecx
	popl	%ebx
	movl	%eax,	-8(%ebp)
# SEXP ("cons", 2) / 

	movl	$1697575,	-12(%ebp)
	pushl	%ebx
	pushl	%ecx
	pushl	%esi
	pushl	%edi
	pushl	-12(%ebp)
	pushl	-8(%ebp)
	pushl	-4(%ebp)
	pushl	$7
	call	Bsexp
	addl	$16,	%esp
	popl	%edi
	popl	%esi
	popl	%ecx
	popl	%ebx
	movl	%eax,	-4(%ebp)
# SEXP ("cons", 2) / 

	movl	$1697575,	-8(%ebp)
	pushl	%ebx
	pushl	%ecx
	pushl	%esi
	pushl	-8(%ebp)
	pushl	-4(%ebp)
	pushl	%edi
	pushl	$7
	call	Bsexp
	addl	$16,	%esp
	popl	%esi
	popl	%ecx
	popl	%ebx
	movl	%eax,	%edi
# SEXP ("cons", 2) / 

	movl	$1697575,	-4(%ebp)
	pushl	%ebx
	pushl	%ecx
	pushl	-4(%ebp)
	pushl	%edi
	pushl	%esi
	pushl	$7
	call	Bsexp
	addl	$16,	%esp
	popl	%ecx
	popl	%ebx
	movl	%eax,	%esi
# SEXP ("cons", 2) / 

	movl	$1697575,	%edi
	pushl	%ebx
	pushl	%edi
	pushl	%esi
	pushl	%ecx
	pushl	$7
	call	Bsexp
	addl	$16,	%esp
	popl	%ebx
	movl	%eax,	%ecx
# SEXP ("cons", 2) / 

	movl	$1697575,	%esi
	pushl	%esi
	pushl	%ecx
	pushl	%ebx
	pushl	$7
	call	Bsexp
	addl	$16,	%esp
	movl	%eax,	%ebx
# LINE (14) / 

	.stabn 68,0,14,.L11-initParser

.L11:

# ST (Global ("exprsList")) / 

	movl	%ebx,	global_exprsList
# DROP / 

# CLOSURE ("Lmemo", []) / 

	pushl	$Lmemo
	pushl	$1
	call	Bclosure
	addl	$8,	%esp
	movl	%eax,	%ebx
# CLOSURE ("Llambda_0", []) / 

	pushl	%ebx
	pushl	$Llambda_0
	pushl	$1
	call	Bclosure
	addl	$8,	%esp
	movl	%eax,	%ecx
	popl	%ebx
# CALL ("Li__Infix_36", 2, false) / 

	pushl	%ecx
	pushl	%ebx
	call	Li__Infix_36
	addl	$8,	%esp
	movl	%eax,	%ebx
# LINE (31) / 

	.stabn 68,0,31,.L12-initParser

.L12:

# ST (Global ("primary")) / 

	movl	%ebx,	global_primary
# DROP / 

# LINE (35) / 

	.stabn 68,0,35,.L13-initParser

.L13:

# CLOSURE ("Lmemo", []) / 

	pushl	$Lmemo
	pushl	$1
	call	Bclosure
	addl	$8,	%esp
	movl	%eax,	%ebx
# CLOSURE ("Llambda_1", []) / 

	pushl	%ebx
	pushl	$Llambda_1
	pushl	$1
	call	Bclosure
	addl	$8,	%esp
	movl	%eax,	%ecx
	popl	%ebx
# LD (Global ("exprsList")) / 

	movl	global_exprsList,	%esi
# LD (Global ("primary")) / 

	movl	global_primary,	%edi
# CALLC (2, false) / 

	pushl	%ebx
	pushl	%ecx
	pushl	%edi
	pushl	%esi
	movl	%ecx,	%edx
	call	*(%ecx)
	addl	$8,	%esp
	popl	%ecx
	popl	%ebx
	movl	%eax,	%ecx
# CALL ("Li__Infix_36", 2, false) / 

	pushl	%ecx
	pushl	%ebx
	call	Li__Infix_36
	addl	$8,	%esp
	movl	%eax,	%ebx
# LINE (33) / 

	.stabn 68,0,33,.L14-initParser

.L14:

# ST (Global ("exp")) / 

	movl	%ebx,	global_exp
# DROP / 

# CALL ("LfuncIf", 0, false) / 

	call	LfuncIf
	addl	$0,	%esp
	movl	%eax,	%ebx
# LINE (77) / 

	.stabn 68,0,77,.L15-initParser

.L15:

# ST (Global ("exprIf")) / 

	movl	%ebx,	global_exprIf
# DROP / 

# CALL ("LfuncCycle", 0, false) / 

	call	LfuncCycle
	addl	$0,	%esp
	movl	%eax,	%ebx
# LINE (78) / 

	.stabn 68,0,78,.L16-initParser

.L16:

# ST (Global ("cycle")) / 

	movl	%ebx,	global_cycle
# DROP / 

# CLOSURE ("Lmemo", []) / 

	pushl	$Lmemo
	pushl	$1
	call	Bclosure
	addl	$8,	%esp
	movl	%eax,	%ebx
# CLOSURE ("Llambda_2", []) / 

	pushl	%ebx
	pushl	$Llambda_2
	pushl	$1
	call	Bclosure
	addl	$8,	%esp
	movl	%eax,	%ecx
	popl	%ebx
# CALL ("Li__Infix_36", 2, false) / 

	pushl	%ecx
	pushl	%ebx
	call	Li__Infix_36
	addl	$8,	%esp
	movl	%eax,	%ebx
# LINE (79) / 

	.stabn 68,0,79,.L17-initParser

.L17:

# ST (Global ("stmt")) / 

	movl	%ebx,	global_stmt
# DROP / 

# CLOSURE ("Lmemo", []) / 

	pushl	$Lmemo
	pushl	$1
	call	Bclosure
	addl	$8,	%esp
	movl	%eax,	%ebx
# CLOSURE ("Llambda_3", []) / 

	pushl	%ebx
	pushl	$Llambda_3
	pushl	$1
	call	Bclosure
	addl	$8,	%esp
	movl	%eax,	%ecx
	popl	%ebx
# CALL ("Li__Infix_36", 2, false) / 

	pushl	%ecx
	pushl	%ebx
	call	Li__Infix_36
	addl	$8,	%esp
	movl	%eax,	%ebx
# LINE (88) / 

	.stabn 68,0,88,.L18-initParser

.L18:

# ST (Global ("parse")) / 

	movl	%ebx,	global_parse
# DROP / 

# CONST (0) / 

	movl	$1,	%ebx
# SLABEL ("L2") / 

L2:

# END / 

	movl	%ebx,	%eax
LinitParser_epilogue:

	movl	%ebp,	%esp
	popl	%ebp
	.cfi_restore	5

	.cfi_def_cfa	4, 4

	ret
	.cfi_endproc

	.set	LinitParser_SIZE,	48

	.set	LSinitParser_SIZE,	12

	.size initParser, .-initParser

# LABEL ("Llambda_3") / 

Llambda_3:

# BEGIN ("Llambda_3", 1, 0, [], ["__tmp423"], [{ blab="L130"; elab="L131"; names=[]; subs=[]; }]) / 

	.type lambda_3, @function

	.stabs "lambda_3:F1",36,0,0,Llambda_3

	.stabs "__tmp423:p1",160,0,0,8

	.cfi_startproc

	pushl	%ebp
	.cfi_def_cfa_offset	8

	.cfi_offset 5, -8

	movl	%esp,	%ebp
	.cfi_def_cfa_register	5

	subl	$LLlambda_3_SIZE,	%esp
	movl	%esp,	%edi
	movl	$filler,	%esi
	movl	$LSLlambda_3_SIZE,	%ecx
	rep movsl	
# SLABEL ("L130") / 

L130:

# LD (Global ("stmt")) / 

	movl	global_stmt,	%ebx
# CLOSURE ("Llambda_4_2", []) / 

	pushl	%ebx
	pushl	$Llambda_4_2
	pushl	$1
	call	Bclosure
	addl	$8,	%esp
	movl	%eax,	%ecx
	popl	%ebx
# CALL ("Lseq", 2, false) / 

	pushl	%ecx
	pushl	%ebx
	call	Lseq
	addl	$8,	%esp
	movl	%eax,	%ebx
# LD (Global ("stmt")) / 

	movl	global_stmt,	%ecx
# CLOSURE ("Llambda_5_2", []) / 

	pushl	%ebx
	pushl	%ecx
	pushl	$Llambda_5_2
	pushl	$1
	call	Bclosure
	addl	$8,	%esp
	movl	%eax,	%esi
	popl	%ecx
	popl	%ebx
# CALL ("Li__Infix_64", 2, false) / 

	pushl	%ebx
	pushl	%esi
	pushl	%ecx
	call	Li__Infix_64
	addl	$8,	%esp
	popl	%ebx
	movl	%eax,	%ecx
# CALL ("Lalt", 2, false) / 

	pushl	%ecx
	pushl	%ebx
	call	Lalt
	addl	$8,	%esp
	movl	%eax,	%ebx
# LD (Arg (0)) / 

	movl	8(%ebp),	%ecx
# CALLC (1, true) / 

	movl	%ecx,	8(%ebp)
	movl	%ebx,	%edx
	movl	(%edx),	%eax
	movl	%ebp,	%esp
	popl	%ebp
	jmp	*%eax
# LABEL ("L132") / 

L132:

# SLABEL ("L131") / 

L131:

# END / 

	movl	%ebx,	%eax
LLlambda_3_epilogue:

	movl	%ebp,	%esp
	popl	%ebp
	.cfi_restore	5

	.cfi_def_cfa	4, 4

	ret
	.cfi_endproc

	.set	LLlambda_3_SIZE,	0

	.set	LSLlambda_3_SIZE,	0

	.size Llambda_3, .-Llambda_3

# LABEL ("Llambda_5_2") / 

Llambda_5_2:

# BEGIN ("Llambda_5_2", 1, 0, [], ["__tmp414"], [{ blab="L141"; elab="L142"; names=[]; subs=[]; }]) / 

	.type lambda_5_2, @function

	.stabs "lambda_5_2:F1",36,0,0,Llambda_5_2

	.stabs "__tmp414:p1",160,0,0,8

	.cfi_startproc

	pushl	%ebp
	.cfi_def_cfa_offset	8

	.cfi_offset 5, -8

	movl	%esp,	%ebp
	.cfi_def_cfa_register	5

	subl	$LLlambda_5_2_SIZE,	%esp
	movl	%esp,	%edi
	movl	$filler,	%esi
	movl	$LSLlambda_5_2_SIZE,	%ecx
	rep movsl	
# SLABEL ("L141") / 

L141:

# LD (Arg (0)) / 

	movl	8(%ebp),	%ebx
# LABEL ("L143") / 

L143:

# SLABEL ("L142") / 

L142:

# END / 

	movl	%ebx,	%eax
LLlambda_5_2_epilogue:

	movl	%ebp,	%esp
	popl	%ebp
	.cfi_restore	5

	.cfi_def_cfa	4, 4

	ret
	.cfi_endproc

	.set	LLlambda_5_2_SIZE,	0

	.set	LSLlambda_5_2_SIZE,	0

	.size Llambda_5_2, .-Llambda_5_2

# LABEL ("Llambda_4_2") / 

Llambda_4_2:

# BEGIN ("Llambda_4_2", 1, 0, [], ["x1"], [{ blab="L144"; elab="L145"; names=[]; subs=[]; }]) / 

	.type lambda_4_2, @function

	.stabs "lambda_4_2:F1",36,0,0,Llambda_4_2

	.stabs "x1:p1",160,0,0,8

	.cfi_startproc

	pushl	%ebp
	.cfi_def_cfa_offset	8

	.cfi_offset 5, -8

	movl	%esp,	%ebp
	.cfi_def_cfa_register	5

	subl	$LLlambda_4_2_SIZE,	%esp
	movl	%esp,	%edi
	movl	$filler,	%esi
	movl	$LSLlambda_4_2_SIZE,	%ecx
	rep movsl	
# SLABEL ("L144") / 

L144:

# STRING (";") / 

	movl	$string_13,	%ebx
	pushl	%ebx
	call	Bstring
	addl	$4,	%esp
	movl	%eax,	%ebx
# CALL ("Ls", 1, false) / 

	pushl	%ebx
	call	Ls
	addl	$4,	%esp
	movl	%eax,	%ebx
# CLOSURE ("Llambda_6_4", [Arg (0)]) / 

	pushl	%ebx
	pushl	8(%ebp)
	pushl	$Llambda_6_4
	pushl	$3
	call	Bclosure
	addl	$12,	%esp
	movl	%eax,	%ecx
	popl	%ebx
# CALL ("Lseq", 2, true) / 

	pushl	%ecx
	pushl	%ebx
	call	Lseq
	addl	$8,	%esp
	movl	%eax,	%ebx
# LABEL ("L146") / 

L146:

# SLABEL ("L145") / 

L145:

# END / 

	movl	%ebx,	%eax
LLlambda_4_2_epilogue:

	movl	%ebp,	%esp
	popl	%ebp
	.cfi_restore	5

	.cfi_def_cfa	4, 4

	ret
	.cfi_endproc

	.set	LLlambda_4_2_SIZE,	0

	.set	LSLlambda_4_2_SIZE,	0

	.size Llambda_4_2, .-Llambda_4_2

# LABEL ("Llambda_6_4") / 

Llambda_6_4:

# BEGIN ("Llambda_6_4", 1, 0, [Arg (0)], ["__tmp413"], [{ blab="L150"; elab="L151"; names=[]; subs=[]; }]) / 

	.type lambda_6_4, @function

	.stabs "lambda_6_4:F1",36,0,0,Llambda_6_4

	.stabs "__tmp413:p1",160,0,0,8

	.cfi_startproc

	pushl	%edx
	pushl	%ebp
	.cfi_def_cfa_offset	12

	.cfi_offset 5, -12

	movl	%esp,	%ebp
	.cfi_def_cfa_register	5

	subl	$LLlambda_6_4_SIZE,	%esp
	movl	%esp,	%edi
	movl	$filler,	%esi
	movl	$LSLlambda_6_4_SIZE,	%ecx
	rep movsl	
# SLABEL ("L150") / 

L150:

# LD (Global ("parse")) / 

	movl	global_parse,	%ebx
# CLOSURE ("Llambda_7_5", [Access (0)]) / 

	pushl	%ebx
	pushl	4(%edx)
	pushl	$Llambda_7_5
	pushl	$3
	call	Bclosure
	addl	$12,	%esp
	movl	%eax,	%ecx
	popl	%ebx
	movl	4(%ebp),	%edx
# CALL ("Li__Infix_64", 2, true) / 

	pushl	%edx
	pushl	%ecx
	pushl	%ebx
	call	Li__Infix_64
	addl	$8,	%esp
	popl	%edx
	movl	%eax,	%ebx
# LABEL ("L152") / 

L152:

# SLABEL ("L151") / 

L151:

# END / 

	movl	%ebx,	%eax
LLlambda_6_4_epilogue:

	movl	%ebp,	%esp
	popl	%ebp
	popl	%edx
	.cfi_restore	5

	.cfi_def_cfa	4, 4

	ret
	.cfi_endproc

	.set	LLlambda_6_4_SIZE,	0

	.set	LSLlambda_6_4_SIZE,	0

	.size Llambda_6_4, .-Llambda_6_4

# LABEL ("Llambda_7_5") / 

Llambda_7_5:

# BEGIN ("Llambda_7_5", 1, 0, [Access (0)], ["x2"], [{ blab="L155"; elab="L156"; names=[]; subs=[{ blab="L158"; elab="L159"; names=[]; subs=[]; }]; }]) / 

	.type lambda_7_5, @function

	.stabs "lambda_7_5:F1",36,0,0,Llambda_7_5

	.stabs "x2:p1",160,0,0,8

	.cfi_startproc

	pushl	%edx
	pushl	%ebp
	.cfi_def_cfa_offset	12

	.cfi_offset 5, -12

	movl	%esp,	%ebp
	.cfi_def_cfa_register	5

	subl	$LLlambda_7_5_SIZE,	%esp
	movl	%esp,	%edi
	movl	$filler,	%esi
	movl	$LSLlambda_7_5_SIZE,	%ecx
	rep movsl	
# SLABEL ("L155") / 

L155:

# SLABEL ("L158") / 

L158:

# LD (Access (0)) / 

	movl	4(%edx),	%ebx
# LD (Arg (0)) / 

	movl	12(%ebp),	%ecx
# SEXP ("Seq", 2) / 

	movl	$369315,	%esi
	pushl	%edx
	pushl	%esi
	pushl	%ecx
	pushl	%ebx
	pushl	$7
	call	Bsexp
	addl	$16,	%esp
	popl	%edx
	movl	%eax,	%ebx
# SLABEL ("L159") / 

L159:

# LABEL ("L157") / 

L157:

# SLABEL ("L156") / 

L156:

# END / 

	movl	%ebx,	%eax
LLlambda_7_5_epilogue:

	movl	%ebp,	%esp
	popl	%ebp
	popl	%edx
	.cfi_restore	5

	.cfi_def_cfa	4, 4

	ret
	.cfi_endproc

	.set	LLlambda_7_5_SIZE,	0

	.set	LSLlambda_7_5_SIZE,	0

	.size Llambda_7_5, .-Llambda_7_5

# LABEL ("Llambda_2") / 

Llambda_2:

# BEGIN ("Llambda_2", 1, 0, [], ["__tmp406"], [{ blab="L162"; elab="L163"; names=[]; subs=[]; }]) / 

	.type lambda_2, @function

	.stabs "lambda_2:F1",36,0,0,Llambda_2

	.stabs "__tmp406:p1",160,0,0,8

	.cfi_startproc

	pushl	%ebp
	.cfi_def_cfa_offset	8

	.cfi_offset 5, -8

	movl	%esp,	%ebp
	.cfi_def_cfa_register	5

	subl	$LLlambda_2_SIZE,	%esp
	movl	%esp,	%edi
	movl	$filler,	%esi
	movl	$LSLlambda_2_SIZE,	%ecx
	rep movsl	
# SLABEL ("L162") / 

L162:

# LINE (79) / 

	.stabn 68,0,79,0

	.stabn 68,0,79,.L19-Llambda_2

.L19:

# LD (Global ("kSkip")) / 

	movl	global_kSkip,	%ebx
# CLOSURE ("Llambda_8_8", []) / 

	pushl	%ebx
	pushl	$Llambda_8_8
	pushl	$1
	call	Bclosure
	addl	$8,	%esp
	movl	%eax,	%ecx
	popl	%ebx
# CALL ("Li__Infix_64", 2, false) / 

	pushl	%ecx
	pushl	%ebx
	call	Li__Infix_64
	addl	$8,	%esp
	movl	%eax,	%ebx
# LD (Global ("kRead")) / 

	movl	global_kRead,	%ecx
# CLOSURE ("Llambda_9_8", []) / 

	pushl	%ebx
	pushl	%ecx
	pushl	$Llambda_9_8
	pushl	$1
	call	Bclosure
	addl	$8,	%esp
	movl	%eax,	%esi
	popl	%ecx
	popl	%ebx
# CALL ("Lseq", 2, false) / 

	pushl	%ebx
	pushl	%esi
	pushl	%ecx
	call	Lseq
	addl	$8,	%esp
	popl	%ebx
	movl	%eax,	%ecx
# LINE (80) / 

	.stabn 68,0,80,.L20-Llambda_2

.L20:

# LD (Global ("kWrite")) / 

	movl	global_kWrite,	%esi
# CLOSURE ("Llambda_10_8", []) / 

	pushl	%ebx
	pushl	%ecx
	pushl	%esi
	pushl	$Llambda_10_8
	pushl	$1
	call	Bclosure
	addl	$8,	%esp
	movl	%eax,	%edi
	popl	%esi
	popl	%ecx
	popl	%ebx
# CALL ("Lseq", 2, false) / 

	pushl	%ebx
	pushl	%ecx
	pushl	%edi
	pushl	%esi
	call	Lseq
	addl	$8,	%esp
	popl	%ecx
	popl	%ebx
	movl	%eax,	%esi
# LINE (81) / 

	.stabn 68,0,81,.L21-Llambda_2

.L21:

# LD (Global ("kIf")) / 

	movl	global_kIf,	%edi
# CLOSURE ("Llambda_11_8", []) / 

	pushl	%ebx
	pushl	%ecx
	pushl	%esi
	pushl	%edi
	pushl	$Llambda_11_8
	pushl	$1
	call	Bclosure
	addl	$8,	%esp
	movl	%eax,	-4(%ebp)
	popl	%edi
	popl	%esi
	popl	%ecx
	popl	%ebx
# CALL ("Lseq", 2, false) / 

	pushl	%ebx
	pushl	%ecx
	pushl	%esi
	pushl	-4(%ebp)
	pushl	%edi
	call	Lseq
	addl	$8,	%esp
	popl	%esi
	popl	%ecx
	popl	%ebx
	movl	%eax,	%edi
# LINE (82) / 

	.stabn 68,0,82,.L22-Llambda_2

.L22:

# LD (Global ("cycle")) / 

	movl	global_cycle,	%eax
	movl	%eax,	-4(%ebp)
# CLOSURE ("Llambda_12_8", []) / 

	pushl	%ebx
	pushl	%ecx
	pushl	%esi
	pushl	%edi
	pushl	$Llambda_12_8
	pushl	$1
	call	Bclosure
	addl	$8,	%esp
	movl	%eax,	-8(%ebp)
	popl	%edi
	popl	%esi
	popl	%ecx
	popl	%ebx
# CALL ("Li__Infix_64", 2, false) / 

	pushl	%ebx
	pushl	%ecx
	pushl	%esi
	pushl	%edi
	pushl	-8(%ebp)
	pushl	-4(%ebp)
	call	Li__Infix_64
	addl	$8,	%esp
	popl	%edi
	popl	%esi
	popl	%ecx
	popl	%ebx
	movl	%eax,	-4(%ebp)
# LINE (84) / 

	.stabn 68,0,84,.L23-Llambda_2

.L23:

# LD (Global ("lident")) / 

	movl	global_lident,	%eax
	movl	%eax,	-8(%ebp)
# LINE (83) / 

	.stabn 68,0,83,.L24-Llambda_2

.L24:

# CLOSURE ("Llambda_13_8", []) / 

	pushl	%ebx
	pushl	%ecx
	pushl	%esi
	pushl	%edi
	pushl	$Llambda_13_8
	pushl	$1
	call	Bclosure
	addl	$8,	%esp
	movl	%eax,	-12(%ebp)
	popl	%edi
	popl	%esi
	popl	%ecx
	popl	%ebx
# CALL ("Lseq", 2, false) / 

	pushl	%ebx
	pushl	%ecx
	pushl	%esi
	pushl	%edi
	pushl	-12(%ebp)
	pushl	-8(%ebp)
	call	Lseq
	addl	$8,	%esp
	popl	%edi
	popl	%esi
	popl	%ecx
	popl	%ebx
	movl	%eax,	-8(%ebp)
# CALL ("Lalt", 2, false) / 

	pushl	%ebx
	pushl	%ecx
	pushl	%esi
	pushl	%edi
	pushl	-8(%ebp)
	pushl	-4(%ebp)
	call	Lalt
	addl	$8,	%esp
	popl	%edi
	popl	%esi
	popl	%ecx
	popl	%ebx
	movl	%eax,	-4(%ebp)
# CALL ("Lalt", 2, false) / 

	pushl	%ebx
	pushl	%ecx
	pushl	%esi
	pushl	-4(%ebp)
	pushl	%edi
	call	Lalt
	addl	$8,	%esp
	popl	%esi
	popl	%ecx
	popl	%ebx
	movl	%eax,	%edi
# CALL ("Lalt", 2, false) / 

	pushl	%ebx
	pushl	%ecx
	pushl	%edi
	pushl	%esi
	call	Lalt
	addl	$8,	%esp
	popl	%ecx
	popl	%ebx
	movl	%eax,	%esi
# CALL ("Lalt", 2, false) / 

	pushl	%ebx
	pushl	%esi
	pushl	%ecx
	call	Lalt
	addl	$8,	%esp
	popl	%ebx
	movl	%eax,	%ecx
# CALL ("Lalt", 2, false) / 

	pushl	%ecx
	pushl	%ebx
	call	Lalt
	addl	$8,	%esp
	movl	%eax,	%ebx
# LD (Arg (0)) / 

	movl	8(%ebp),	%ecx
# CALLC (1, true) / 

	movl	%ecx,	8(%ebp)
	movl	%ebx,	%edx
	movl	(%edx),	%eax
	movl	%ebp,	%esp
	popl	%ebp
	jmp	*%eax
# LABEL ("L164") / 

L164:

# SLABEL ("L163") / 

L163:

# END / 

	movl	%ebx,	%eax
LLlambda_2_epilogue:

	movl	%ebp,	%esp
	popl	%ebp
	.cfi_restore	5

	.cfi_def_cfa	4, 4

	ret
	.cfi_endproc

	.set	LLlambda_2_SIZE,	12

	.set	LSLlambda_2_SIZE,	3

	.size Llambda_2, .-Llambda_2

# LABEL ("Llambda_13_8") / 

Llambda_13_8:

# BEGIN ("Llambda_13_8", 1, 0, [], ["x1"], [{ blab="L189"; elab="L190"; names=[]; subs=[]; }]) / 

	.type lambda_13_8, @function

	.stabs "lambda_13_8:F1",36,0,0,Llambda_13_8

	.stabs "x1:p1",160,0,0,8

	.cfi_startproc

	pushl	%ebp
	.cfi_def_cfa_offset	8

	.cfi_offset 5, -8

	movl	%esp,	%ebp
	.cfi_def_cfa_register	5

	subl	$LLlambda_13_8_SIZE,	%esp
	movl	%esp,	%edi
	movl	$filler,	%esi
	movl	$LSLlambda_13_8_SIZE,	%ecx
	rep movsl	
# SLABEL ("L189") / 

L189:

# LINE (84) / 

	.stabn 68,0,84,0

	.stabn 68,0,84,.L25-Llambda_13_8

.L25:

# STRING (":=") / 

	movl	$string_14,	%ebx
	pushl	%ebx
	call	Bstring
	addl	$4,	%esp
	movl	%eax,	%ebx
# CALL ("Ls", 1, false) / 

	pushl	%ebx
	call	Ls
	addl	$4,	%esp
	movl	%eax,	%ebx
# CLOSURE ("Llambda_14_9", [Arg (0)]) / 

	pushl	%ebx
	pushl	8(%ebp)
	pushl	$Llambda_14_9
	pushl	$3
	call	Bclosure
	addl	$12,	%esp
	movl	%eax,	%ecx
	popl	%ebx
# CALL ("Lseq", 2, true) / 

	pushl	%ecx
	pushl	%ebx
	call	Lseq
	addl	$8,	%esp
	movl	%eax,	%ebx
# LABEL ("L191") / 

L191:

# SLABEL ("L190") / 

L190:

# END / 

	movl	%ebx,	%eax
LLlambda_13_8_epilogue:

	movl	%ebp,	%esp
	popl	%ebp
	.cfi_restore	5

	.cfi_def_cfa	4, 4

	ret
	.cfi_endproc

	.set	LLlambda_13_8_SIZE,	0

	.set	LSLlambda_13_8_SIZE,	0

	.size Llambda_13_8, .-Llambda_13_8

# LABEL ("Llambda_14_9") / 

Llambda_14_9:

# BEGIN ("Llambda_14_9", 1, 0, [Arg (0)], ["__tmp365"], [{ blab="L195"; elab="L196"; names=[]; subs=[]; }]) / 

	.type lambda_14_9, @function

	.stabs "lambda_14_9:F1",36,0,0,Llambda_14_9

	.stabs "__tmp365:p1",160,0,0,8

	.cfi_startproc

	pushl	%edx
	pushl	%ebp
	.cfi_def_cfa_offset	12

	.cfi_offset 5, -12

	movl	%esp,	%ebp
	.cfi_def_cfa_register	5

	subl	$LLlambda_14_9_SIZE,	%esp
	movl	%esp,	%edi
	movl	$filler,	%esi
	movl	$LSLlambda_14_9_SIZE,	%ecx
	rep movsl	
# SLABEL ("L195") / 

L195:

# LINE (85) / 

	.stabn 68,0,85,0

	.stabn 68,0,85,.L26-Llambda_14_9

.L26:

# LD (Global ("exp")) / 

	movl	global_exp,	%ebx
# LINE (84) / 

	.stabn 68,0,84,.L27-Llambda_14_9

.L27:

# CLOSURE ("Llambda_15_10", [Access (0)]) / 

	pushl	%ebx
	pushl	4(%edx)
	pushl	$Llambda_15_10
	pushl	$3
	call	Bclosure
	addl	$12,	%esp
	movl	%eax,	%ecx
	popl	%ebx
	movl	4(%ebp),	%edx
# CALL ("Li__Infix_64", 2, true) / 

	pushl	%edx
	pushl	%ecx
	pushl	%ebx
	call	Li__Infix_64
	addl	$8,	%esp
	popl	%edx
	movl	%eax,	%ebx
# LABEL ("L197") / 

L197:

# SLABEL ("L196") / 

L196:

# END / 

	movl	%ebx,	%eax
LLlambda_14_9_epilogue:

	movl	%ebp,	%esp
	popl	%ebp
	popl	%edx
	.cfi_restore	5

	.cfi_def_cfa	4, 4

	ret
	.cfi_endproc

	.set	LLlambda_14_9_SIZE,	0

	.set	LSLlambda_14_9_SIZE,	0

	.size Llambda_14_9, .-Llambda_14_9

# LABEL ("Llambda_15_10") / 

Llambda_15_10:

# BEGIN ("Llambda_15_10", 1, 0, [Access (0)], ["x2"], [{ blab="L200"; elab="L201"; names=[]; subs=[{ blab="L203"; elab="L204"; names=[]; subs=[]; }]; }]) / 

	.type lambda_15_10, @function

	.stabs "lambda_15_10:F1",36,0,0,Llambda_15_10

	.stabs "x2:p1",160,0,0,8

	.cfi_startproc

	pushl	%edx
	pushl	%ebp
	.cfi_def_cfa_offset	12

	.cfi_offset 5, -12

	movl	%esp,	%ebp
	.cfi_def_cfa_register	5

	subl	$LLlambda_15_10_SIZE,	%esp
	movl	%esp,	%edi
	movl	$filler,	%esi
	movl	$LSLlambda_15_10_SIZE,	%ecx
	rep movsl	
# SLABEL ("L200") / 

L200:

# SLABEL ("L203") / 

L203:

# LINE (85) / 

	.stabn 68,0,85,0

	.stabn 68,0,85,.L28-Llambda_15_10

.L28:

# LD (Access (0)) / 

	movl	4(%edx),	%ebx
# LD (Arg (0)) / 

	movl	12(%ebp),	%ecx
# SEXP ("Assn", 2) / 

	movl	$14313885,	%esi
	pushl	%edx
	pushl	%esi
	pushl	%ecx
	pushl	%ebx
	pushl	$7
	call	Bsexp
	addl	$16,	%esp
	popl	%edx
	movl	%eax,	%ebx
# SLABEL ("L204") / 

L204:

# LABEL ("L202") / 

L202:

# SLABEL ("L201") / 

L201:

# END / 

	movl	%ebx,	%eax
LLlambda_15_10_epilogue:

	movl	%ebp,	%esp
	popl	%ebp
	popl	%edx
	.cfi_restore	5

	.cfi_def_cfa	4, 4

	ret
	.cfi_endproc

	.set	LLlambda_15_10_SIZE,	0

	.set	LSLlambda_15_10_SIZE,	0

	.size Llambda_15_10, .-Llambda_15_10

# LABEL ("Llambda_12_8") / 

Llambda_12_8:

# BEGIN ("Llambda_12_8", 1, 0, [], ["__tmp358"], [{ blab="L207"; elab="L208"; names=[]; subs=[]; }]) / 

	.type lambda_12_8, @function

	.stabs "lambda_12_8:F1",36,0,0,Llambda_12_8

	.stabs "__tmp358:p1",160,0,0,8

	.cfi_startproc

	pushl	%ebp
	.cfi_def_cfa_offset	8

	.cfi_offset 5, -8

	movl	%esp,	%ebp
	.cfi_def_cfa_register	5

	subl	$LLlambda_12_8_SIZE,	%esp
	movl	%esp,	%edi
	movl	$filler,	%esi
	movl	$LSLlambda_12_8_SIZE,	%ecx
	rep movsl	
# SLABEL ("L207") / 

L207:

# LD (Arg (0)) / 

	movl	8(%ebp),	%ebx
# LABEL ("L209") / 

L209:

# SLABEL ("L208") / 

L208:

# END / 

	movl	%ebx,	%eax
LLlambda_12_8_epilogue:

	movl	%ebp,	%esp
	popl	%ebp
	.cfi_restore	5

	.cfi_def_cfa	4, 4

	ret
	.cfi_endproc

	.set	LLlambda_12_8_SIZE,	0

	.set	LSLlambda_12_8_SIZE,	0

	.size Llambda_12_8, .-Llambda_12_8

# LABEL ("Llambda_11_8") / 

Llambda_11_8:

# BEGIN ("Llambda_11_8", 1, 0, [], ["__tmp357"], [{ blab="L210"; elab="L211"; names=[]; subs=[]; }]) / 

	.type lambda_11_8, @function

	.stabs "lambda_11_8:F1",36,0,0,Llambda_11_8

	.stabs "__tmp357:p1",160,0,0,8

	.cfi_startproc

	pushl	%ebp
	.cfi_def_cfa_offset	8

	.cfi_offset 5, -8

	movl	%esp,	%ebp
	.cfi_def_cfa_register	5

	subl	$LLlambda_11_8_SIZE,	%esp
	movl	%esp,	%edi
	movl	$filler,	%esi
	movl	$LSLlambda_11_8_SIZE,	%ecx
	rep movsl	
# SLABEL ("L210") / 

L210:

# LINE (82) / 

	.stabn 68,0,82,0

	.stabn 68,0,82,.L29-Llambda_11_8

.L29:

# LD (Global ("exp")) / 

	movl	global_exp,	%ebx
# CLOSURE ("Llambda_16_14", []) / 

	pushl	%ebx
	pushl	$Llambda_16_14
	pushl	$1
	call	Bclosure
	addl	$8,	%esp
	movl	%eax,	%ecx
	popl	%ebx
# CALL ("Lseq", 2, true) / 

	pushl	%ecx
	pushl	%ebx
	call	Lseq
	addl	$8,	%esp
	movl	%eax,	%ebx
# LABEL ("L212") / 

L212:

# SLABEL ("L211") / 

L211:

# END / 

	movl	%ebx,	%eax
LLlambda_11_8_epilogue:

	movl	%ebp,	%esp
	popl	%ebp
	.cfi_restore	5

	.cfi_def_cfa	4, 4

	ret
	.cfi_endproc

	.set	LLlambda_11_8_SIZE,	0

	.set	LSLlambda_11_8_SIZE,	0

	.size Llambda_11_8, .-Llambda_11_8

# LABEL ("Llambda_16_14") / 

Llambda_16_14:

# BEGIN ("Llambda_16_14", 1, 0, [], ["c"], [{ blab="L215"; elab="L216"; names=[]; subs=[]; }]) / 

	.type lambda_16_14, @function

	.stabs "lambda_16_14:F1",36,0,0,Llambda_16_14

	.stabs "c:p1",160,0,0,8

	.cfi_startproc

	pushl	%ebp
	.cfi_def_cfa_offset	8

	.cfi_offset 5, -8

	movl	%esp,	%ebp
	.cfi_def_cfa_register	5

	subl	$LLlambda_16_14_SIZE,	%esp
	movl	%esp,	%edi
	movl	$filler,	%esi
	movl	$LSLlambda_16_14_SIZE,	%ecx
	rep movsl	
# SLABEL ("L215") / 

L215:

# LD (Global ("kThen")) / 

	movl	global_kThen,	%ebx
# CLOSURE ("Llambda_17_15", [Arg (0)]) / 

	pushl	%ebx
	pushl	8(%ebp)
	pushl	$Llambda_17_15
	pushl	$3
	call	Bclosure
	addl	$12,	%esp
	movl	%eax,	%ecx
	popl	%ebx
# CALL ("Lseq", 2, true) / 

	pushl	%ecx
	pushl	%ebx
	call	Lseq
	addl	$8,	%esp
	movl	%eax,	%ebx
# LABEL ("L217") / 

L217:

# SLABEL ("L216") / 

L216:

# END / 

	movl	%ebx,	%eax
LLlambda_16_14_epilogue:

	movl	%ebp,	%esp
	popl	%ebp
	.cfi_restore	5

	.cfi_def_cfa	4, 4

	ret
	.cfi_endproc

	.set	LLlambda_16_14_SIZE,	0

	.set	LSLlambda_16_14_SIZE,	0

	.size Llambda_16_14, .-Llambda_16_14

# LABEL ("Llambda_17_15") / 

Llambda_17_15:

# BEGIN ("Llambda_17_15", 1, 0, [Arg (0)], ["__tmp356"], [{ blab="L220"; elab="L221"; names=[]; subs=[]; }]) / 

	.type lambda_17_15, @function

	.stabs "lambda_17_15:F1",36,0,0,Llambda_17_15

	.stabs "__tmp356:p1",160,0,0,8

	.cfi_startproc

	pushl	%edx
	pushl	%ebp
	.cfi_def_cfa_offset	12

	.cfi_offset 5, -12

	movl	%esp,	%ebp
	.cfi_def_cfa_register	5

	subl	$LLlambda_17_15_SIZE,	%esp
	movl	%esp,	%edi
	movl	$filler,	%esi
	movl	$LSLlambda_17_15_SIZE,	%ecx
	rep movsl	
# SLABEL ("L220") / 

L220:

# LD (Global ("stmt")) / 

	movl	global_stmt,	%ebx
# CLOSURE ("Llambda_18_16", []) / 

	pushl	%ebx
	pushl	$Llambda_18_16
	pushl	$1
	call	Bclosure
	addl	$8,	%esp
	movl	%eax,	%ecx
	popl	%ebx
	movl	4(%ebp),	%edx
# CALL ("Lseq", 2, false) / 

	pushl	%edx
	pushl	%ecx
	pushl	%ebx
	call	Lseq
	addl	$8,	%esp
	popl	%edx
	movl	%eax,	%ebx
# LD (Global ("stmt")) / 

	movl	global_stmt,	%ecx
# CLOSURE ("Llambda_19_16", []) / 

	pushl	%ebx
	pushl	%ecx
	pushl	$Llambda_19_16
	pushl	$1
	call	Bclosure
	addl	$8,	%esp
	movl	%eax,	%esi
	popl	%ecx
	popl	%ebx
	movl	4(%ebp),	%edx
# CALL ("Li__Infix_64", 2, false) / 

	pushl	%edx
	pushl	%ebx
	pushl	%esi
	pushl	%ecx
	call	Li__Infix_64
	addl	$8,	%esp
	popl	%ebx
	popl	%edx
	movl	%eax,	%ecx
# CALL ("Lalt", 2, false) / 

	pushl	%edx
	pushl	%ecx
	pushl	%ebx
	call	Lalt
	addl	$8,	%esp
	popl	%edx
	movl	%eax,	%ebx
# CLOSURE ("Llambda_20_16", [Access (0)]) / 

	pushl	%ebx
	pushl	4(%edx)
	pushl	$Llambda_20_16
	pushl	$3
	call	Bclosure
	addl	$12,	%esp
	movl	%eax,	%ecx
	popl	%ebx
	movl	4(%ebp),	%edx
# CALL ("Lseq", 2, true) / 

	pushl	%edx
	pushl	%ecx
	pushl	%ebx
	call	Lseq
	addl	$8,	%esp
	popl	%edx
	movl	%eax,	%ebx
# LABEL ("L222") / 

L222:

# SLABEL ("L221") / 

L221:

# END / 

	movl	%ebx,	%eax
LLlambda_17_15_epilogue:

	movl	%ebp,	%esp
	popl	%ebp
	popl	%edx
	.cfi_restore	5

	.cfi_def_cfa	4, 4

	ret
	.cfi_endproc

	.set	LLlambda_17_15_SIZE,	0

	.set	LSLlambda_17_15_SIZE,	0

	.size Llambda_17_15, .-Llambda_17_15

# LABEL ("Llambda_20_16") / 

Llambda_20_16:

# BEGIN ("Llambda_20_16", 1, 0, [Access (0)], ["i"], [{ blab="L231"; elab="L232"; names=[]; subs=[]; }]) / 

	.type lambda_20_16, @function

	.stabs "lambda_20_16:F1",36,0,0,Llambda_20_16

	.stabs "i:p1",160,0,0,8

	.cfi_startproc

	pushl	%edx
	pushl	%ebp
	.cfi_def_cfa_offset	12

	.cfi_offset 5, -12

	movl	%esp,	%ebp
	.cfi_def_cfa_register	5

	subl	$LLlambda_20_16_SIZE,	%esp
	movl	%esp,	%edi
	movl	$filler,	%esi
	movl	$LSLlambda_20_16_SIZE,	%ecx
	rep movsl	
# SLABEL ("L231") / 

L231:

# LD (Global ("exprIf")) / 

	movl	global_exprIf,	%ebx
# CLOSURE ("Llambda_21_17", [Access (0); Arg (0)]) / 

	pushl	%ebx
	pushl	12(%ebp)
	pushl	4(%edx)
	pushl	$Llambda_21_17
	pushl	$5
	call	Bclosure
	addl	$16,	%esp
	movl	%eax,	%ecx
	popl	%ebx
	movl	4(%ebp),	%edx
# CALL ("Li__Infix_64", 2, true) / 

	pushl	%edx
	pushl	%ecx
	pushl	%ebx
	call	Li__Infix_64
	addl	$8,	%esp
	popl	%edx
	movl	%eax,	%ebx
# LABEL ("L233") / 

L233:

# SLABEL ("L232") / 

L232:

# END / 

	movl	%ebx,	%eax
LLlambda_20_16_epilogue:

	movl	%ebp,	%esp
	popl	%ebp
	popl	%edx
	.cfi_restore	5

	.cfi_def_cfa	4, 4

	ret
	.cfi_endproc

	.set	LLlambda_20_16_SIZE,	0

	.set	LSLlambda_20_16_SIZE,	0

	.size Llambda_20_16, .-Llambda_20_16

# LABEL ("Llambda_21_17") / 

Llambda_21_17:

# BEGIN ("Llambda_21_17", 1, 0, [Access (0); Arg (0)], ["e"], [{ blab="L236"; elab="L237"; names=[]; subs=[{ blab="L239"; elab="L240"; names=[]; subs=[]; }]; }]) / 

	.type lambda_21_17, @function

	.stabs "lambda_21_17:F1",36,0,0,Llambda_21_17

	.stabs "e:p1",160,0,0,8

	.cfi_startproc

	pushl	%edx
	pushl	%ebp
	.cfi_def_cfa_offset	12

	.cfi_offset 5, -12

	movl	%esp,	%ebp
	.cfi_def_cfa_register	5

	subl	$LLlambda_21_17_SIZE,	%esp
	movl	%esp,	%edi
	movl	$filler,	%esi
	movl	$LSLlambda_21_17_SIZE,	%ecx
	rep movsl	
# SLABEL ("L236") / 

L236:

# SLABEL ("L239") / 

L239:

# LD (Access (0)) / 

	movl	4(%edx),	%ebx
# LD (Access (1)) / 

	movl	8(%edx),	%ecx
# LD (Arg (0)) / 

	movl	12(%ebp),	%esi
# SEXP ("If", 3) / 

	movl	$4493,	%edi
	pushl	%edx
	pushl	%edi
	pushl	%esi
	pushl	%ecx
	pushl	%ebx
	pushl	$9
	call	Bsexp
	addl	$20,	%esp
	popl	%edx
	movl	%eax,	%ebx
# SLABEL ("L240") / 

L240:

# LABEL ("L238") / 

L238:

# SLABEL ("L237") / 

L237:

# END / 

	movl	%ebx,	%eax
LLlambda_21_17_epilogue:

	movl	%ebp,	%esp
	popl	%ebp
	popl	%edx
	.cfi_restore	5

	.cfi_def_cfa	4, 4

	ret
	.cfi_endproc

	.set	LLlambda_21_17_SIZE,	0

	.set	LSLlambda_21_17_SIZE,	0

	.size Llambda_21_17, .-Llambda_21_17

# LABEL ("Llambda_19_16") / 

Llambda_19_16:

# BEGIN ("Llambda_19_16", 1, 0, [], ["__tmp348"], [{ blab="L244"; elab="L245"; names=[]; subs=[]; }]) / 

	.type lambda_19_16, @function

	.stabs "lambda_19_16:F1",36,0,0,Llambda_19_16

	.stabs "__tmp348:p1",160,0,0,8

	.cfi_startproc

	pushl	%ebp
	.cfi_def_cfa_offset	8

	.cfi_offset 5, -8

	movl	%esp,	%ebp
	.cfi_def_cfa_register	5

	subl	$LLlambda_19_16_SIZE,	%esp
	movl	%esp,	%edi
	movl	$filler,	%esi
	movl	$LSLlambda_19_16_SIZE,	%ecx
	rep movsl	
# SLABEL ("L244") / 

L244:

# LD (Arg (0)) / 

	movl	8(%ebp),	%ebx
# LABEL ("L246") / 

L246:

# SLABEL ("L245") / 

L245:

# END / 

	movl	%ebx,	%eax
LLlambda_19_16_epilogue:

	movl	%ebp,	%esp
	popl	%ebp
	.cfi_restore	5

	.cfi_def_cfa	4, 4

	ret
	.cfi_endproc

	.set	LLlambda_19_16_SIZE,	0

	.set	LSLlambda_19_16_SIZE,	0

	.size Llambda_19_16, .-Llambda_19_16

# LABEL ("Llambda_18_16") / 

Llambda_18_16:

# BEGIN ("Llambda_18_16", 1, 0, [], ["x1"], [{ blab="L247"; elab="L248"; names=[]; subs=[]; }]) / 

	.type lambda_18_16, @function

	.stabs "lambda_18_16:F1",36,0,0,Llambda_18_16

	.stabs "x1:p1",160,0,0,8

	.cfi_startproc

	pushl	%ebp
	.cfi_def_cfa_offset	8

	.cfi_offset 5, -8

	movl	%esp,	%ebp
	.cfi_def_cfa_register	5

	subl	$LLlambda_18_16_SIZE,	%esp
	movl	%esp,	%edi
	movl	$filler,	%esi
	movl	$LSLlambda_18_16_SIZE,	%ecx
	rep movsl	
# SLABEL ("L247") / 

L247:

# STRING (";") / 

	movl	$string_13,	%ebx
	pushl	%ebx
	call	Bstring
	addl	$4,	%esp
	movl	%eax,	%ebx
# CALL ("Ls", 1, false) / 

	pushl	%ebx
	call	Ls
	addl	$4,	%esp
	movl	%eax,	%ebx
# CLOSURE ("Llambda_22_21", [Arg (0)]) / 

	pushl	%ebx
	pushl	8(%ebp)
	pushl	$Llambda_22_21
	pushl	$3
	call	Bclosure
	addl	$12,	%esp
	movl	%eax,	%ecx
	popl	%ebx
# CALL ("Lseq", 2, true) / 

	pushl	%ecx
	pushl	%ebx
	call	Lseq
	addl	$8,	%esp
	movl	%eax,	%ebx
# LABEL ("L249") / 

L249:

# SLABEL ("L248") / 

L248:

# END / 

	movl	%ebx,	%eax
LLlambda_18_16_epilogue:

	movl	%ebp,	%esp
	popl	%ebp
	.cfi_restore	5

	.cfi_def_cfa	4, 4

	ret
	.cfi_endproc

	.set	LLlambda_18_16_SIZE,	0

	.set	LSLlambda_18_16_SIZE,	0

	.size Llambda_18_16, .-Llambda_18_16

# LABEL ("Llambda_22_21") / 

Llambda_22_21:

# BEGIN ("Llambda_22_21", 1, 0, [Arg (0)], ["__tmp347"], [{ blab="L253"; elab="L254"; names=[]; subs=[]; }]) / 

	.type lambda_22_21, @function

	.stabs "lambda_22_21:F1",36,0,0,Llambda_22_21

	.stabs "__tmp347:p1",160,0,0,8

	.cfi_startproc

	pushl	%edx
	pushl	%ebp
	.cfi_def_cfa_offset	12

	.cfi_offset 5, -12

	movl	%esp,	%ebp
	.cfi_def_cfa_register	5

	subl	$LLlambda_22_21_SIZE,	%esp
	movl	%esp,	%edi
	movl	$filler,	%esi
	movl	$LSLlambda_22_21_SIZE,	%ecx
	rep movsl	
# SLABEL ("L253") / 

L253:

# LD (Global ("parse")) / 

	movl	global_parse,	%ebx
# CLOSURE ("Llambda_23_22", [Access (0)]) / 

	pushl	%ebx
	pushl	4(%edx)
	pushl	$Llambda_23_22
	pushl	$3
	call	Bclosure
	addl	$12,	%esp
	movl	%eax,	%ecx
	popl	%ebx
	movl	4(%ebp),	%edx
# CALL ("Li__Infix_64", 2, true) / 

	pushl	%edx
	pushl	%ecx
	pushl	%ebx
	call	Li__Infix_64
	addl	$8,	%esp
	popl	%edx
	movl	%eax,	%ebx
# LABEL ("L255") / 

L255:

# SLABEL ("L254") / 

L254:

# END / 

	movl	%ebx,	%eax
LLlambda_22_21_epilogue:

	movl	%ebp,	%esp
	popl	%ebp
	popl	%edx
	.cfi_restore	5

	.cfi_def_cfa	4, 4

	ret
	.cfi_endproc

	.set	LLlambda_22_21_SIZE,	0

	.set	LSLlambda_22_21_SIZE,	0

	.size Llambda_22_21, .-Llambda_22_21

# LABEL ("Llambda_23_22") / 

Llambda_23_22:

# BEGIN ("Llambda_23_22", 1, 0, [Access (0)], ["x2"], [{ blab="L258"; elab="L259"; names=[]; subs=[{ blab="L261"; elab="L262"; names=[]; subs=[]; }]; }]) / 

	.type lambda_23_22, @function

	.stabs "lambda_23_22:F1",36,0,0,Llambda_23_22

	.stabs "x2:p1",160,0,0,8

	.cfi_startproc

	pushl	%edx
	pushl	%ebp
	.cfi_def_cfa_offset	12

	.cfi_offset 5, -12

	movl	%esp,	%ebp
	.cfi_def_cfa_register	5

	subl	$LLlambda_23_22_SIZE,	%esp
	movl	%esp,	%edi
	movl	$filler,	%esi
	movl	$LSLlambda_23_22_SIZE,	%ecx
	rep movsl	
# SLABEL ("L258") / 

L258:

# SLABEL ("L261") / 

L261:

# LD (Access (0)) / 

	movl	4(%edx),	%ebx
# LD (Arg (0)) / 

	movl	12(%ebp),	%ecx
# SEXP ("Seq", 2) / 

	movl	$369315,	%esi
	pushl	%edx
	pushl	%esi
	pushl	%ecx
	pushl	%ebx
	pushl	$7
	call	Bsexp
	addl	$16,	%esp
	popl	%edx
	movl	%eax,	%ebx
# SLABEL ("L262") / 

L262:

# LABEL ("L260") / 

L260:

# SLABEL ("L259") / 

L259:

# END / 

	movl	%ebx,	%eax
LLlambda_23_22_epilogue:

	movl	%ebp,	%esp
	popl	%ebp
	popl	%edx
	.cfi_restore	5

	.cfi_def_cfa	4, 4

	ret
	.cfi_endproc

	.set	LLlambda_23_22_SIZE,	0

	.set	LSLlambda_23_22_SIZE,	0

	.size Llambda_23_22, .-Llambda_23_22

# LABEL ("Llambda_10_8") / 

Llambda_10_8:

# BEGIN ("Llambda_10_8", 1, 0, [], ["__tmp331"], [{ blab="L265"; elab="L266"; names=[]; subs=[]; }]) / 

	.type lambda_10_8, @function

	.stabs "lambda_10_8:F1",36,0,0,Llambda_10_8

	.stabs "__tmp331:p1",160,0,0,8

	.cfi_startproc

	pushl	%ebp
	.cfi_def_cfa_offset	8

	.cfi_offset 5, -8

	movl	%esp,	%ebp
	.cfi_def_cfa_register	5

	subl	$LLlambda_10_8_SIZE,	%esp
	movl	%esp,	%edi
	movl	$filler,	%esi
	movl	$LSLlambda_10_8_SIZE,	%ecx
	rep movsl	
# SLABEL ("L265") / 

L265:

# LINE (81) / 

	.stabn 68,0,81,0

	.stabn 68,0,81,.L30-Llambda_10_8

.L30:

# LD (Global ("exp")) / 

	movl	global_exp,	%ebx
# CALL ("LarrInbr", 1, false) / 

	pushl	%ebx
	call	LarrInbr
	addl	$4,	%esp
	movl	%eax,	%ebx
# CLOSURE ("Llambda_24_25", []) / 

	pushl	%ebx
	pushl	$Llambda_24_25
	pushl	$1
	call	Bclosure
	addl	$8,	%esp
	movl	%eax,	%ecx
	popl	%ebx
# CALL ("Li__Infix_64", 2, true) / 

	pushl	%ecx
	pushl	%ebx
	call	Li__Infix_64
	addl	$8,	%esp
	movl	%eax,	%ebx
# LABEL ("L267") / 

L267:

# SLABEL ("L266") / 

L266:

# END / 

	movl	%ebx,	%eax
LLlambda_10_8_epilogue:

	movl	%ebp,	%esp
	popl	%ebp
	.cfi_restore	5

	.cfi_def_cfa	4, 4

	ret
	.cfi_endproc

	.set	LLlambda_10_8_SIZE,	0

	.set	LSLlambda_10_8_SIZE,	0

	.size Llambda_10_8, .-Llambda_10_8

# LABEL ("Llambda_24_25") / 

Llambda_24_25:

# BEGIN ("Llambda_24_25", 1, 0, [], ["i"], [{ blab="L271"; elab="L272"; names=[]; subs=[{ blab="L274"; elab="L275"; names=[]; subs=[]; }]; }]) / 

	.type lambda_24_25, @function

	.stabs "lambda_24_25:F1",36,0,0,Llambda_24_25

	.stabs "i:p1",160,0,0,8

	.cfi_startproc

	pushl	%ebp
	.cfi_def_cfa_offset	8

	.cfi_offset 5, -8

	movl	%esp,	%ebp
	.cfi_def_cfa_register	5

	subl	$LLlambda_24_25_SIZE,	%esp
	movl	%esp,	%edi
	movl	$filler,	%esi
	movl	$LSLlambda_24_25_SIZE,	%ecx
	rep movsl	
# SLABEL ("L271") / 

L271:

# SLABEL ("L274") / 

L274:

# LD (Arg (0)) / 

	movl	8(%ebp),	%ebx
# SEXP ("Write", 1) / 

	movl	$1653680651,	%ecx
	pushl	%ecx
	pushl	%ebx
	pushl	$5
	call	Bsexp
	addl	$12,	%esp
	movl	%eax,	%ebx
# SLABEL ("L275") / 

L275:

# LABEL ("L273") / 

L273:

# SLABEL ("L272") / 

L272:

# END / 

	movl	%ebx,	%eax
LLlambda_24_25_epilogue:

	movl	%ebp,	%esp
	popl	%ebp
	.cfi_restore	5

	.cfi_def_cfa	4, 4

	ret
	.cfi_endproc

	.set	LLlambda_24_25_SIZE,	0

	.set	LSLlambda_24_25_SIZE,	0

	.size Llambda_24_25, .-Llambda_24_25

# LABEL ("Llambda_9_8") / 

Llambda_9_8:

# BEGIN ("Llambda_9_8", 1, 0, [], ["__tmp325"], [{ blab="L277"; elab="L278"; names=[]; subs=[]; }]) / 

	.type lambda_9_8, @function

	.stabs "lambda_9_8:F1",36,0,0,Llambda_9_8

	.stabs "__tmp325:p1",160,0,0,8

	.cfi_startproc

	pushl	%ebp
	.cfi_def_cfa_offset	8

	.cfi_offset 5, -8

	movl	%esp,	%ebp
	.cfi_def_cfa_register	5

	subl	$LLlambda_9_8_SIZE,	%esp
	movl	%esp,	%edi
	movl	$filler,	%esi
	movl	$LSLlambda_9_8_SIZE,	%ecx
	rep movsl	
# SLABEL ("L277") / 

L277:

# LINE (80) / 

	.stabn 68,0,80,0

	.stabn 68,0,80,.L31-Llambda_9_8

.L31:

# LD (Global ("lident")) / 

	movl	global_lident,	%ebx
# CALL ("LarrInbr", 1, false) / 

	pushl	%ebx
	call	LarrInbr
	addl	$4,	%esp
	movl	%eax,	%ebx
# CLOSURE ("Llambda_25_28", []) / 

	pushl	%ebx
	pushl	$Llambda_25_28
	pushl	$1
	call	Bclosure
	addl	$8,	%esp
	movl	%eax,	%ecx
	popl	%ebx
# CALL ("Li__Infix_64", 2, true) / 

	pushl	%ecx
	pushl	%ebx
	call	Li__Infix_64
	addl	$8,	%esp
	movl	%eax,	%ebx
# LABEL ("L279") / 

L279:

# SLABEL ("L278") / 

L278:

# END / 

	movl	%ebx,	%eax
LLlambda_9_8_epilogue:

	movl	%ebp,	%esp
	popl	%ebp
	.cfi_restore	5

	.cfi_def_cfa	4, 4

	ret
	.cfi_endproc

	.set	LLlambda_9_8_SIZE,	0

	.set	LSLlambda_9_8_SIZE,	0

	.size Llambda_9_8, .-Llambda_9_8

# LABEL ("Llambda_25_28") / 

Llambda_25_28:

# BEGIN ("Llambda_25_28", 1, 0, [], ["i"], [{ blab="L283"; elab="L284"; names=[]; subs=[{ blab="L286"; elab="L287"; names=[]; subs=[]; }]; }]) / 

	.type lambda_25_28, @function

	.stabs "lambda_25_28:F1",36,0,0,Llambda_25_28

	.stabs "i:p1",160,0,0,8

	.cfi_startproc

	pushl	%ebp
	.cfi_def_cfa_offset	8

	.cfi_offset 5, -8

	movl	%esp,	%ebp
	.cfi_def_cfa_register	5

	subl	$LLlambda_25_28_SIZE,	%esp
	movl	%esp,	%edi
	movl	$filler,	%esi
	movl	$LSLlambda_25_28_SIZE,	%ecx
	rep movsl	
# SLABEL ("L283") / 

L283:

# SLABEL ("L286") / 

L286:

# LD (Arg (0)) / 

	movl	8(%ebp),	%ebx
# SEXP ("Read", 1) / 

	movl	$23109769,	%ecx
	pushl	%ecx
	pushl	%ebx
	pushl	$5
	call	Bsexp
	addl	$12,	%esp
	movl	%eax,	%ebx
# SLABEL ("L287") / 

L287:

# LABEL ("L285") / 

L285:

# SLABEL ("L284") / 

L284:

# END / 

	movl	%ebx,	%eax
LLlambda_25_28_epilogue:

	movl	%ebp,	%esp
	popl	%ebp
	.cfi_restore	5

	.cfi_def_cfa	4, 4

	ret
	.cfi_endproc

	.set	LLlambda_25_28_SIZE,	0

	.set	LSLlambda_25_28_SIZE,	0

	.size Llambda_25_28, .-Llambda_25_28

# LABEL ("Llambda_8_8") / 

Llambda_8_8:

# BEGIN ("Llambda_8_8", 1, 0, [], ["__tmp319"], [{ blab="L289"; elab="L290"; names=[]; subs=[{ blab="L292"; elab="L293"; names=[]; subs=[]; }]; }]) / 

	.type lambda_8_8, @function

	.stabs "lambda_8_8:F1",36,0,0,Llambda_8_8

	.stabs "__tmp319:p1",160,0,0,8

	.cfi_startproc

	pushl	%ebp
	.cfi_def_cfa_offset	8

	.cfi_offset 5, -8

	movl	%esp,	%ebp
	.cfi_def_cfa_register	5

	subl	$LLlambda_8_8_SIZE,	%esp
	movl	%esp,	%edi
	movl	$filler,	%esi
	movl	$LSLlambda_8_8_SIZE,	%ecx
	rep movsl	
# SLABEL ("L289") / 

L289:

# SLABEL ("L292") / 

L292:

# SEXP ("Skip", 0) / 

	movl	$23684257,	%ebx
	pushl	%ebx
	pushl	$3
	call	Bsexp
	addl	$8,	%esp
	movl	%eax,	%ebx
# SLABEL ("L293") / 

L293:

# LABEL ("L291") / 

L291:

# SLABEL ("L290") / 

L290:

# END / 

	movl	%ebx,	%eax
LLlambda_8_8_epilogue:

	movl	%ebp,	%esp
	popl	%ebp
	.cfi_restore	5

	.cfi_def_cfa	4, 4

	ret
	.cfi_endproc

	.set	LLlambda_8_8_SIZE,	0

	.set	LSLlambda_8_8_SIZE,	0

	.size Llambda_8_8, .-Llambda_8_8

# LABEL ("Llambda_1") / 

Llambda_1:

# BEGIN ("Llambda_1", 1, 0, [], ["__tmp31"], [{ blab="L295"; elab="L296"; names=[]; subs=[]; }]) / 

	.type lambda_1, @function

	.stabs "lambda_1:F1",36,0,0,Llambda_1

	.stabs "__tmp31:p1",160,0,0,8

	.cfi_startproc

	pushl	%ebp
	.cfi_def_cfa_offset	8

	.cfi_offset 5, -8

	movl	%esp,	%ebp
	.cfi_def_cfa_register	5

	subl	$LLlambda_1_SIZE,	%esp
	movl	%esp,	%edi
	movl	$filler,	%esi
	movl	$LSLlambda_1_SIZE,	%ecx
	rep movsl	
# SLABEL ("L295") / 

L295:

# LINE (35) / 

	.stabn 68,0,35,0

	.stabn 68,0,35,.L32-Llambda_1

.L32:

# LD (Arg (0)) / 

	movl	8(%ebp),	%ebx
# CALL ("Lexpr", 1, true) / 

	movl	%ebx,	8(%ebp)
	movl	%ebp,	%esp
	popl	%ebp
	jmp	Lexpr
# LABEL ("L297") / 

L297:

# SLABEL ("L296") / 

L296:

# END / 

	movl	%ebx,	%eax
LLlambda_1_epilogue:

	movl	%ebp,	%esp
	popl	%ebp
	.cfi_restore	5

	.cfi_def_cfa	4, 4

	ret
	.cfi_endproc

	.set	LLlambda_1_SIZE,	0

	.set	LSLlambda_1_SIZE,	0

	.size Llambda_1, .-Llambda_1

# LABEL ("Llambda_0") / 

Llambda_0:

# BEGIN ("Llambda_0", 1, 0, [], ["__tmp29"], [{ blab="L299"; elab="L300"; names=[]; subs=[]; }]) / 

	.type lambda_0, @function

	.stabs "lambda_0:F1",36,0,0,Llambda_0

	.stabs "__tmp29:p1",160,0,0,8

	.cfi_startproc

	pushl	%ebp
	.cfi_def_cfa_offset	8

	.cfi_offset 5, -8

	movl	%esp,	%ebp
	.cfi_def_cfa_register	5

	subl	$LLlambda_0_SIZE,	%esp
	movl	%esp,	%edi
	movl	$filler,	%esi
	movl	$LSLlambda_0_SIZE,	%ecx
	rep movsl	
# SLABEL ("L299") / 

L299:

# LINE (31) / 

	.stabn 68,0,31,0

	.stabn 68,0,31,.L33-Llambda_0

.L33:

# LD (Global ("decimal")) / 

	movl	global_decimal,	%ebx
# CLOSURE ("Llambda_26_34", []) / 

	pushl	%ebx
	pushl	$Llambda_26_34
	pushl	$1
	call	Bclosure
	addl	$8,	%esp
	movl	%eax,	%ecx
	popl	%ebx
# CALL ("Li__Infix_64", 2, false) / 

	pushl	%ecx
	pushl	%ebx
	call	Li__Infix_64
	addl	$8,	%esp
	movl	%eax,	%ebx
# LINE (32) / 

	.stabn 68,0,32,.L34-Llambda_0

.L34:

# LD (Global ("lident")) / 

	movl	global_lident,	%ecx
# LINE (31) / 

	.stabn 68,0,31,.L35-Llambda_0

.L35:

# CLOSURE ("Llambda_27_34", []) / 

	pushl	%ebx
	pushl	%ecx
	pushl	$Llambda_27_34
	pushl	$1
	call	Bclosure
	addl	$8,	%esp
	movl	%eax,	%esi
	popl	%ecx
	popl	%ebx
# CALL ("Li__Infix_64", 2, false) / 

	pushl	%ebx
	pushl	%esi
	pushl	%ecx
	call	Li__Infix_64
	addl	$8,	%esp
	popl	%ebx
	movl	%eax,	%ecx
# LINE (32) / 

	.stabn 68,0,32,.L36-Llambda_0

.L36:

# LINE (33) / 

	.stabn 68,0,33,.L37-Llambda_0

.L37:

# LD (Global ("exp")) / 

	movl	global_exp,	%esi
# CALL ("LarrInbr", 1, false) / 

	pushl	%ebx
	pushl	%ecx
	pushl	%esi
	call	LarrInbr
	addl	$4,	%esp
	popl	%ecx
	popl	%ebx
	movl	%eax,	%esi
# CLOSURE ("Llambda_28_34", []) / 

	pushl	%ebx
	pushl	%ecx
	pushl	%esi
	pushl	$Llambda_28_34
	pushl	$1
	call	Bclosure
	addl	$8,	%esp
	movl	%eax,	%edi
	popl	%esi
	popl	%ecx
	popl	%ebx
# CALL ("Li__Infix_64", 2, false) / 

	pushl	%ebx
	pushl	%ecx
	pushl	%edi
	pushl	%esi
	call	Li__Infix_64
	addl	$8,	%esp
	popl	%ecx
	popl	%ebx
	movl	%eax,	%esi
# CALL ("Lalt", 2, false) / 

	pushl	%ebx
	pushl	%esi
	pushl	%ecx
	call	Lalt
	addl	$8,	%esp
	popl	%ebx
	movl	%eax,	%ecx
# CALL ("Lalt", 2, false) / 

	pushl	%ecx
	pushl	%ebx
	call	Lalt
	addl	$8,	%esp
	movl	%eax,	%ebx
# LD (Arg (0)) / 

	movl	8(%ebp),	%ecx
# CALLC (1, true) / 

	movl	%ecx,	8(%ebp)
	movl	%ebx,	%edx
	movl	(%edx),	%eax
	movl	%ebp,	%esp
	popl	%ebp
	jmp	*%eax
# LABEL ("L301") / 

L301:

# SLABEL ("L300") / 

L300:

# END / 

	movl	%ebx,	%eax
LLlambda_0_epilogue:

	movl	%ebp,	%esp
	popl	%ebp
	.cfi_restore	5

	.cfi_def_cfa	4, 4

	ret
	.cfi_endproc

	.set	LLlambda_0_SIZE,	0

	.set	LSLlambda_0_SIZE,	0

	.size Llambda_0, .-Llambda_0

# LABEL ("Llambda_28_34") / 

Llambda_28_34:

# BEGIN ("Llambda_28_34", 1, 0, [], ["__tmp24"], [{ blab="L315"; elab="L316"; names=[]; subs=[]; }]) / 

	.type lambda_28_34, @function

	.stabs "lambda_28_34:F1",36,0,0,Llambda_28_34

	.stabs "__tmp24:p1",160,0,0,8

	.cfi_startproc

	pushl	%ebp
	.cfi_def_cfa_offset	8

	.cfi_offset 5, -8

	movl	%esp,	%ebp
	.cfi_def_cfa_register	5

	subl	$LLlambda_28_34_SIZE,	%esp
	movl	%esp,	%edi
	movl	$filler,	%esi
	movl	$LSLlambda_28_34_SIZE,	%ecx
	rep movsl	
# SLABEL ("L315") / 

L315:

# LD (Arg (0)) / 

	movl	8(%ebp),	%ebx
# LABEL ("L317") / 

L317:

# SLABEL ("L316") / 

L316:

# END / 

	movl	%ebx,	%eax
LLlambda_28_34_epilogue:

	movl	%ebp,	%esp
	popl	%ebp
	.cfi_restore	5

	.cfi_def_cfa	4, 4

	ret
	.cfi_endproc

	.set	LLlambda_28_34_SIZE,	0

	.set	LSLlambda_28_34_SIZE,	0

	.size Llambda_28_34, .-Llambda_28_34

# LABEL ("Llambda_27_34") / 

Llambda_27_34:

# BEGIN ("Llambda_27_34", 1, 0, [], ["x"], [{ blab="L318"; elab="L319"; names=[]; subs=[{ blab="L321"; elab="L322"; names=[]; subs=[]; }]; }]) / 

	.type lambda_27_34, @function

	.stabs "lambda_27_34:F1",36,0,0,Llambda_27_34

	.stabs "x:p1",160,0,0,8

	.cfi_startproc

	pushl	%ebp
	.cfi_def_cfa_offset	8

	.cfi_offset 5, -8

	movl	%esp,	%ebp
	.cfi_def_cfa_register	5

	subl	$LLlambda_27_34_SIZE,	%esp
	movl	%esp,	%edi
	movl	$filler,	%esi
	movl	$LSLlambda_27_34_SIZE,	%ecx
	rep movsl	
# SLABEL ("L318") / 

L318:

# SLABEL ("L321") / 

L321:

# LINE (32) / 

	.stabn 68,0,32,0

	.stabn 68,0,32,.L38-Llambda_27_34

.L38:

# LD (Arg (0)) / 

	movl	8(%ebp),	%ebx
# SEXP ("Var", 1) / 

	movl	$393381,	%ecx
	pushl	%ecx
	pushl	%ebx
	pushl	$5
	call	Bsexp
	addl	$12,	%esp
	movl	%eax,	%ebx
# SLABEL ("L322") / 

L322:

# LABEL ("L320") / 

L320:

# SLABEL ("L319") / 

L319:

# END / 

	movl	%ebx,	%eax
LLlambda_27_34_epilogue:

	movl	%ebp,	%esp
	popl	%ebp
	.cfi_restore	5

	.cfi_def_cfa	4, 4

	ret
	.cfi_endproc

	.set	LLlambda_27_34_SIZE,	0

	.set	LSLlambda_27_34_SIZE,	0

	.size Llambda_27_34, .-Llambda_27_34

# LABEL ("Llambda_26_34") / 

Llambda_26_34:

# BEGIN ("Llambda_26_34", 1, 0, [], ["x"], [{ blab="L324"; elab="L325"; names=[]; subs=[{ blab="L327"; elab="L328"; names=[]; subs=[]; }]; }]) / 

	.type lambda_26_34, @function

	.stabs "lambda_26_34:F1",36,0,0,Llambda_26_34

	.stabs "x:p1",160,0,0,8

	.cfi_startproc

	pushl	%ebp
	.cfi_def_cfa_offset	8

	.cfi_offset 5, -8

	movl	%esp,	%ebp
	.cfi_def_cfa_register	5

	subl	$LLlambda_26_34_SIZE,	%esp
	movl	%esp,	%edi
	movl	$filler,	%esi
	movl	$LSLlambda_26_34_SIZE,	%ecx
	rep movsl	
# SLABEL ("L324") / 

L324:

# SLABEL ("L327") / 

L327:

# LINE (31) / 

	.stabn 68,0,31,0

	.stabn 68,0,31,.L39-Llambda_26_34

.L39:

# LD (Arg (0)) / 

	movl	8(%ebp),	%ebx
# CALL ("LstringInt", 1, false) / 

	pushl	%ebx
	call	LstringInt
	addl	$4,	%esp
	movl	%eax,	%ebx
# SEXP ("Const", 1) / 

	movl	$981060009,	%ecx
	pushl	%ecx
	pushl	%ebx
	pushl	$5
	call	Bsexp
	addl	$12,	%esp
	movl	%eax,	%ebx
# SLABEL ("L328") / 

L328:

# LABEL ("L326") / 

L326:

# SLABEL ("L325") / 

L325:

# END / 

	movl	%ebx,	%eax
LLlambda_26_34_epilogue:

	movl	%ebp,	%esp
	popl	%ebp
	.cfi_restore	5

	.cfi_def_cfa	4, 4

	ret
	.cfi_endproc

	.set	LLlambda_26_34_SIZE,	0

	.set	LSLlambda_26_34_SIZE,	0

	.size Llambda_26_34, .-Llambda_26_34

# LABEL ("LfuncCycle") / 

LfuncCycle:

# BEGIN ("LfuncCycle", 0, 0, [], [], [{ blab="L331"; elab="L332"; names=[]; subs=[{ blab="L334"; elab="L335"; names=[]; subs=[]; }]; }]) / 

	.type funcCycle, @function

	.stabs "funcCycle:F1",36,0,0,LfuncCycle

	.cfi_startproc

	pushl	%ebp
	.cfi_def_cfa_offset	8

	.cfi_offset 5, -8

	movl	%esp,	%ebp
	.cfi_def_cfa_register	5

	subl	$LLfuncCycle_SIZE,	%esp
	movl	%esp,	%edi
	movl	$filler,	%esi
	movl	$LSLfuncCycle_SIZE,	%ecx
	rep movsl	
# SLABEL ("L331") / 

L331:

# SLABEL ("L334") / 

L334:

# LINE (70) / 

	.stabn 68,0,70,0

	.stabn 68,0,70,.L40-LfuncCycle

.L40:

# CLOSURE ("Lmemo", []) / 

	pushl	$Lmemo
	pushl	$1
	call	Bclosure
	addl	$8,	%esp
	movl	%eax,	%ebx
# CLOSURE ("Llambda_29_41", []) / 

	pushl	%ebx
	pushl	$Llambda_29_41
	pushl	$1
	call	Bclosure
	addl	$8,	%esp
	movl	%eax,	%ecx
	popl	%ebx
# CALL ("Li__Infix_36", 2, true) / 

	pushl	%ecx
	pushl	%ebx
	call	Li__Infix_36
	addl	$8,	%esp
	movl	%eax,	%ebx
# SLABEL ("L335") / 

L335:

# LABEL ("L333") / 

L333:

# SLABEL ("L332") / 

L332:

# END / 

	movl	%ebx,	%eax
LLfuncCycle_epilogue:

	movl	%ebp,	%esp
	popl	%ebp
	.cfi_restore	5

	.cfi_def_cfa	4, 4

	ret
	.cfi_endproc

	.set	LLfuncCycle_SIZE,	0

	.set	LSLfuncCycle_SIZE,	0

	.size LfuncCycle, .-LfuncCycle

# LABEL ("Llambda_29_41") / 

Llambda_29_41:

# BEGIN ("Llambda_29_41", 1, 0, [], ["__tmp317"], [{ blab="L338"; elab="L339"; names=[]; subs=[]; }]) / 

	.type lambda_29_41, @function

	.stabs "lambda_29_41:F1",36,0,0,Llambda_29_41

	.stabs "__tmp317:p1",160,0,0,8

	.cfi_startproc

	pushl	%ebp
	.cfi_def_cfa_offset	8

	.cfi_offset 5, -8

	movl	%esp,	%ebp
	.cfi_def_cfa_register	5

	subl	$LLlambda_29_41_SIZE,	%esp
	movl	%esp,	%edi
	movl	$filler,	%esi
	movl	$LSLlambda_29_41_SIZE,	%ecx
	rep movsl	
# SLABEL ("L338") / 

L338:

# LINE (71) / 

	.stabn 68,0,71,0

	.stabn 68,0,71,.L41-Llambda_29_41

.L41:

# LD (Global ("kDo")) / 

	movl	global_kDo,	%ebx
# CLOSURE ("Llambda_30_42", []) / 

	pushl	%ebx
	pushl	$Llambda_30_42
	pushl	$1
	call	Bclosure
	addl	$8,	%esp
	movl	%eax,	%ecx
	popl	%ebx
# CALL ("Lseq", 2, false) / 

	pushl	%ecx
	pushl	%ebx
	call	Lseq
	addl	$8,	%esp
	movl	%eax,	%ebx
# LINE (72) / 

	.stabn 68,0,72,.L42-Llambda_29_41

.L42:

# LD (Global ("kFor")) / 

	movl	global_kFor,	%ecx
# CLOSURE ("Llambda_31_42", []) / 

	pushl	%ebx
	pushl	%ecx
	pushl	$Llambda_31_42
	pushl	$1
	call	Bclosure
	addl	$8,	%esp
	movl	%eax,	%esi
	popl	%ecx
	popl	%ebx
# CALL ("Lseq", 2, false) / 

	pushl	%ebx
	pushl	%esi
	pushl	%ecx
	call	Lseq
	addl	$8,	%esp
	popl	%ebx
	movl	%eax,	%ecx
# LINE (74) / 

	.stabn 68,0,74,.L43-Llambda_29_41

.L43:

# LD (Global ("kWhile")) / 

	movl	global_kWhile,	%esi
# CLOSURE ("Llambda_32_42", []) / 

	pushl	%ebx
	pushl	%ecx
	pushl	%esi
	pushl	$Llambda_32_42
	pushl	$1
	call	Bclosure
	addl	$8,	%esp
	movl	%eax,	%edi
	popl	%esi
	popl	%ecx
	popl	%ebx
# CALL ("Lseq", 2, false) / 

	pushl	%ebx
	pushl	%ecx
	pushl	%edi
	pushl	%esi
	call	Lseq
	addl	$8,	%esp
	popl	%ecx
	popl	%ebx
	movl	%eax,	%esi
# CALL ("Lalt", 2, false) / 

	pushl	%ebx
	pushl	%esi
	pushl	%ecx
	call	Lalt
	addl	$8,	%esp
	popl	%ebx
	movl	%eax,	%ecx
# CALL ("Lalt", 2, false) / 

	pushl	%ecx
	pushl	%ebx
	call	Lalt
	addl	$8,	%esp
	movl	%eax,	%ebx
# LD (Arg (0)) / 

	movl	8(%ebp),	%ecx
# CALLC (1, true) / 

	movl	%ecx,	8(%ebp)
	movl	%ebx,	%edx
	movl	(%edx),	%eax
	movl	%ebp,	%esp
	popl	%ebp
	jmp	*%eax
# LABEL ("L340") / 

L340:

# SLABEL ("L339") / 

L339:

# END / 

	movl	%ebx,	%eax
LLlambda_29_41_epilogue:

	movl	%ebp,	%esp
	popl	%ebp
	.cfi_restore	5

	.cfi_def_cfa	4, 4

	ret
	.cfi_endproc

	.set	LLlambda_29_41_SIZE,	0

	.set	LSLlambda_29_41_SIZE,	0

	.size Llambda_29_41, .-Llambda_29_41

# LABEL ("Llambda_32_42") / 

Llambda_32_42:

# BEGIN ("Llambda_32_42", 1, 0, [], ["__tmp233"], [{ blab="L353"; elab="L354"; names=[]; subs=[]; }]) / 

	.type lambda_32_42, @function

	.stabs "lambda_32_42:F1",36,0,0,Llambda_32_42

	.stabs "__tmp233:p1",160,0,0,8

	.cfi_startproc

	pushl	%ebp
	.cfi_def_cfa_offset	8

	.cfi_offset 5, -8

	movl	%esp,	%ebp
	.cfi_def_cfa_register	5

	subl	$LLlambda_32_42_SIZE,	%esp
	movl	%esp,	%edi
	movl	$filler,	%esi
	movl	$LSLlambda_32_42_SIZE,	%ecx
	rep movsl	
# SLABEL ("L353") / 

L353:

# LINE (75) / 

	.stabn 68,0,75,0

	.stabn 68,0,75,.L44-Llambda_32_42

.L44:

# LD (Global ("exp")) / 

	movl	global_exp,	%ebx
# CLOSURE ("Llambda_33_43", []) / 

	pushl	%ebx
	pushl	$Llambda_33_43
	pushl	$1
	call	Bclosure
	addl	$8,	%esp
	movl	%eax,	%ecx
	popl	%ebx
# CALL ("Lseq", 2, true) / 

	pushl	%ecx
	pushl	%ebx
	call	Lseq
	addl	$8,	%esp
	movl	%eax,	%ebx
# LABEL ("L355") / 

L355:

# SLABEL ("L354") / 

L354:

# END / 

	movl	%ebx,	%eax
LLlambda_32_42_epilogue:

	movl	%ebp,	%esp
	popl	%ebp
	.cfi_restore	5

	.cfi_def_cfa	4, 4

	ret
	.cfi_endproc

	.set	LLlambda_32_42_SIZE,	0

	.set	LSLlambda_32_42_SIZE,	0

	.size Llambda_32_42, .-Llambda_32_42

# LABEL ("Llambda_33_43") / 

Llambda_33_43:

# BEGIN ("Llambda_33_43", 1, 0, [], ["c"], [{ blab="L358"; elab="L359"; names=[]; subs=[]; }]) / 

	.type lambda_33_43, @function

	.stabs "lambda_33_43:F1",36,0,0,Llambda_33_43

	.stabs "c:p1",160,0,0,8

	.cfi_startproc

	pushl	%ebp
	.cfi_def_cfa_offset	8

	.cfi_offset 5, -8

	movl	%esp,	%ebp
	.cfi_def_cfa_register	5

	subl	$LLlambda_33_43_SIZE,	%esp
	movl	%esp,	%edi
	movl	$filler,	%esi
	movl	$LSLlambda_33_43_SIZE,	%ecx
	rep movsl	
# SLABEL ("L358") / 

L358:

# LD (Global ("kDo")) / 

	movl	global_kDo,	%ebx
# CLOSURE ("Llambda_34_44", [Arg (0)]) / 

	pushl	%ebx
	pushl	8(%ebp)
	pushl	$Llambda_34_44
	pushl	$3
	call	Bclosure
	addl	$12,	%esp
	movl	%eax,	%ecx
	popl	%ebx
# CALL ("Lseq", 2, true) / 

	pushl	%ecx
	pushl	%ebx
	call	Lseq
	addl	$8,	%esp
	movl	%eax,	%ebx
# LABEL ("L360") / 

L360:

# SLABEL ("L359") / 

L359:

# END / 

	movl	%ebx,	%eax
LLlambda_33_43_epilogue:

	movl	%ebp,	%esp
	popl	%ebp
	.cfi_restore	5

	.cfi_def_cfa	4, 4

	ret
	.cfi_endproc

	.set	LLlambda_33_43_SIZE,	0

	.set	LSLlambda_33_43_SIZE,	0

	.size Llambda_33_43, .-Llambda_33_43

# LABEL ("Llambda_34_44") / 

Llambda_34_44:

# BEGIN ("Llambda_34_44", 1, 0, [Arg (0)], ["__tmp232"], [{ blab="L363"; elab="L364"; names=[]; subs=[]; }]) / 

	.type lambda_34_44, @function

	.stabs "lambda_34_44:F1",36,0,0,Llambda_34_44

	.stabs "__tmp232:p1",160,0,0,8

	.cfi_startproc

	pushl	%edx
	pushl	%ebp
	.cfi_def_cfa_offset	12

	.cfi_offset 5, -12

	movl	%esp,	%ebp
	.cfi_def_cfa_register	5

	subl	$LLlambda_34_44_SIZE,	%esp
	movl	%esp,	%edi
	movl	$filler,	%esi
	movl	$LSLlambda_34_44_SIZE,	%ecx
	rep movsl	
# SLABEL ("L363") / 

L363:

# LD (Global ("stmt")) / 

	movl	global_stmt,	%ebx
# CLOSURE ("Llambda_35_45", []) / 

	pushl	%ebx
	pushl	$Llambda_35_45
	pushl	$1
	call	Bclosure
	addl	$8,	%esp
	movl	%eax,	%ecx
	popl	%ebx
	movl	4(%ebp),	%edx
# CALL ("Lseq", 2, false) / 

	pushl	%edx
	pushl	%ecx
	pushl	%ebx
	call	Lseq
	addl	$8,	%esp
	popl	%edx
	movl	%eax,	%ebx
# LD (Global ("stmt")) / 

	movl	global_stmt,	%ecx
# CLOSURE ("Llambda_36_45", []) / 

	pushl	%ebx
	pushl	%ecx
	pushl	$Llambda_36_45
	pushl	$1
	call	Bclosure
	addl	$8,	%esp
	movl	%eax,	%esi
	popl	%ecx
	popl	%ebx
	movl	4(%ebp),	%edx
# CALL ("Li__Infix_64", 2, false) / 

	pushl	%edx
	pushl	%ebx
	pushl	%esi
	pushl	%ecx
	call	Li__Infix_64
	addl	$8,	%esp
	popl	%ebx
	popl	%edx
	movl	%eax,	%ecx
# CALL ("Lalt", 2, false) / 

	pushl	%edx
	pushl	%ecx
	pushl	%ebx
	call	Lalt
	addl	$8,	%esp
	popl	%edx
	movl	%eax,	%ebx
# CLOSURE ("Llambda_37_45", [Access (0)]) / 

	pushl	%ebx
	pushl	4(%edx)
	pushl	$Llambda_37_45
	pushl	$3
	call	Bclosure
	addl	$12,	%esp
	movl	%eax,	%ecx
	popl	%ebx
	movl	4(%ebp),	%edx
# CALL ("Lseq", 2, true) / 

	pushl	%edx
	pushl	%ecx
	pushl	%ebx
	call	Lseq
	addl	$8,	%esp
	popl	%edx
	movl	%eax,	%ebx
# LABEL ("L365") / 

L365:

# SLABEL ("L364") / 

L364:

# END / 

	movl	%ebx,	%eax
LLlambda_34_44_epilogue:

	movl	%ebp,	%esp
	popl	%ebp
	popl	%edx
	.cfi_restore	5

	.cfi_def_cfa	4, 4

	ret
	.cfi_endproc

	.set	LLlambda_34_44_SIZE,	0

	.set	LSLlambda_34_44_SIZE,	0

	.size Llambda_34_44, .-Llambda_34_44

# LABEL ("Llambda_37_45") / 

Llambda_37_45:

# BEGIN ("Llambda_37_45", 1, 0, [Access (0)], ["f"], [{ blab="L374"; elab="L375"; names=[]; subs=[]; }]) / 

	.type lambda_37_45, @function

	.stabs "lambda_37_45:F1",36,0,0,Llambda_37_45

	.stabs "f:p1",160,0,0,8

	.cfi_startproc

	pushl	%edx
	pushl	%ebp
	.cfi_def_cfa_offset	12

	.cfi_offset 5, -12

	movl	%esp,	%ebp
	.cfi_def_cfa_register	5

	subl	$LLlambda_37_45_SIZE,	%esp
	movl	%esp,	%edi
	movl	$filler,	%esi
	movl	$LSLlambda_37_45_SIZE,	%ecx
	rep movsl	
# SLABEL ("L374") / 

L374:

# LD (Global ("kOd")) / 

	movl	global_kOd,	%ebx
# CLOSURE ("Llambda_38_46", [Access (0); Arg (0)]) / 

	pushl	%ebx
	pushl	12(%ebp)
	pushl	4(%edx)
	pushl	$Llambda_38_46
	pushl	$5
	call	Bclosure
	addl	$16,	%esp
	movl	%eax,	%ecx
	popl	%ebx
	movl	4(%ebp),	%edx
# CALL ("Li__Infix_64", 2, true) / 

	pushl	%edx
	pushl	%ecx
	pushl	%ebx
	call	Li__Infix_64
	addl	$8,	%esp
	popl	%edx
	movl	%eax,	%ebx
# LABEL ("L376") / 

L376:

# SLABEL ("L375") / 

L375:

# END / 

	movl	%ebx,	%eax
LLlambda_37_45_epilogue:

	movl	%ebp,	%esp
	popl	%ebp
	popl	%edx
	.cfi_restore	5

	.cfi_def_cfa	4, 4

	ret
	.cfi_endproc

	.set	LLlambda_37_45_SIZE,	0

	.set	LSLlambda_37_45_SIZE,	0

	.size Llambda_37_45, .-Llambda_37_45

# LABEL ("Llambda_38_46") / 

Llambda_38_46:

# BEGIN ("Llambda_38_46", 1, 0, [Access (0); Arg (0)], ["__tmp231"], [{ blab="L379"; elab="L380"; names=[]; subs=[{ blab="L382"; elab="L383"; names=[]; subs=[]; }]; }]) / 

	.type lambda_38_46, @function

	.stabs "lambda_38_46:F1",36,0,0,Llambda_38_46

	.stabs "__tmp231:p1",160,0,0,8

	.cfi_startproc

	pushl	%edx
	pushl	%ebp
	.cfi_def_cfa_offset	12

	.cfi_offset 5, -12

	movl	%esp,	%ebp
	.cfi_def_cfa_register	5

	subl	$LLlambda_38_46_SIZE,	%esp
	movl	%esp,	%edi
	movl	$filler,	%esi
	movl	$LSLlambda_38_46_SIZE,	%ecx
	rep movsl	
# SLABEL ("L379") / 

L379:

# SLABEL ("L382") / 

L382:

# LD (Access (0)) / 

	movl	4(%edx),	%ebx
# LD (Access (1)) / 

	movl	8(%edx),	%ecx
# SEXP ("While", 2) / 

	movl	$1648436747,	%esi
	pushl	%edx
	pushl	%esi
	pushl	%ecx
	pushl	%ebx
	pushl	$7
	call	Bsexp
	addl	$16,	%esp
	popl	%edx
	movl	%eax,	%ebx
# SLABEL ("L383") / 

L383:

# LABEL ("L381") / 

L381:

# SLABEL ("L380") / 

L380:

# END / 

	movl	%ebx,	%eax
LLlambda_38_46_epilogue:

	movl	%ebp,	%esp
	popl	%ebp
	popl	%edx
	.cfi_restore	5

	.cfi_def_cfa	4, 4

	ret
	.cfi_endproc

	.set	LLlambda_38_46_SIZE,	0

	.set	LSLlambda_38_46_SIZE,	0

	.size Llambda_38_46, .-Llambda_38_46

# LABEL ("Llambda_36_45") / 

Llambda_36_45:

# BEGIN ("Llambda_36_45", 1, 0, [], ["__tmp225"], [{ blab="L386"; elab="L387"; names=[]; subs=[]; }]) / 

	.type lambda_36_45, @function

	.stabs "lambda_36_45:F1",36,0,0,Llambda_36_45

	.stabs "__tmp225:p1",160,0,0,8

	.cfi_startproc

	pushl	%ebp
	.cfi_def_cfa_offset	8

	.cfi_offset 5, -8

	movl	%esp,	%ebp
	.cfi_def_cfa_register	5

	subl	$LLlambda_36_45_SIZE,	%esp
	movl	%esp,	%edi
	movl	$filler,	%esi
	movl	$LSLlambda_36_45_SIZE,	%ecx
	rep movsl	
# SLABEL ("L386") / 

L386:

# LD (Arg (0)) / 

	movl	8(%ebp),	%ebx
# LABEL ("L388") / 

L388:

# SLABEL ("L387") / 

L387:

# END / 

	movl	%ebx,	%eax
LLlambda_36_45_epilogue:

	movl	%ebp,	%esp
	popl	%ebp
	.cfi_restore	5

	.cfi_def_cfa	4, 4

	ret
	.cfi_endproc

	.set	LLlambda_36_45_SIZE,	0

	.set	LSLlambda_36_45_SIZE,	0

	.size Llambda_36_45, .-Llambda_36_45

# LABEL ("Llambda_35_45") / 

Llambda_35_45:

# BEGIN ("Llambda_35_45", 1, 0, [], ["x1"], [{ blab="L389"; elab="L390"; names=[]; subs=[]; }]) / 

	.type lambda_35_45, @function

	.stabs "lambda_35_45:F1",36,0,0,Llambda_35_45

	.stabs "x1:p1",160,0,0,8

	.cfi_startproc

	pushl	%ebp
	.cfi_def_cfa_offset	8

	.cfi_offset 5, -8

	movl	%esp,	%ebp
	.cfi_def_cfa_register	5

	subl	$LLlambda_35_45_SIZE,	%esp
	movl	%esp,	%edi
	movl	$filler,	%esi
	movl	$LSLlambda_35_45_SIZE,	%ecx
	rep movsl	
# SLABEL ("L389") / 

L389:

# STRING (";") / 

	movl	$string_13,	%ebx
	pushl	%ebx
	call	Bstring
	addl	$4,	%esp
	movl	%eax,	%ebx
# CALL ("Ls", 1, false) / 

	pushl	%ebx
	call	Ls
	addl	$4,	%esp
	movl	%eax,	%ebx
# CLOSURE ("Llambda_39_50", [Arg (0)]) / 

	pushl	%ebx
	pushl	8(%ebp)
	pushl	$Llambda_39_50
	pushl	$3
	call	Bclosure
	addl	$12,	%esp
	movl	%eax,	%ecx
	popl	%ebx
# CALL ("Lseq", 2, true) / 

	pushl	%ecx
	pushl	%ebx
	call	Lseq
	addl	$8,	%esp
	movl	%eax,	%ebx
# LABEL ("L391") / 

L391:

# SLABEL ("L390") / 

L390:

# END / 

	movl	%ebx,	%eax
LLlambda_35_45_epilogue:

	movl	%ebp,	%esp
	popl	%ebp
	.cfi_restore	5

	.cfi_def_cfa	4, 4

	ret
	.cfi_endproc

	.set	LLlambda_35_45_SIZE,	0

	.set	LSLlambda_35_45_SIZE,	0

	.size Llambda_35_45, .-Llambda_35_45

# LABEL ("Llambda_39_50") / 

Llambda_39_50:

# BEGIN ("Llambda_39_50", 1, 0, [Arg (0)], ["__tmp224"], [{ blab="L395"; elab="L396"; names=[]; subs=[]; }]) / 

	.type lambda_39_50, @function

	.stabs "lambda_39_50:F1",36,0,0,Llambda_39_50

	.stabs "__tmp224:p1",160,0,0,8

	.cfi_startproc

	pushl	%edx
	pushl	%ebp
	.cfi_def_cfa_offset	12

	.cfi_offset 5, -12

	movl	%esp,	%ebp
	.cfi_def_cfa_register	5

	subl	$LLlambda_39_50_SIZE,	%esp
	movl	%esp,	%edi
	movl	$filler,	%esi
	movl	$LSLlambda_39_50_SIZE,	%ecx
	rep movsl	
# SLABEL ("L395") / 

L395:

# LD (Global ("parse")) / 

	movl	global_parse,	%ebx
# CLOSURE ("Llambda_40_51", [Access (0)]) / 

	pushl	%ebx
	pushl	4(%edx)
	pushl	$Llambda_40_51
	pushl	$3
	call	Bclosure
	addl	$12,	%esp
	movl	%eax,	%ecx
	popl	%ebx
	movl	4(%ebp),	%edx
# CALL ("Li__Infix_64", 2, true) / 

	pushl	%edx
	pushl	%ecx
	pushl	%ebx
	call	Li__Infix_64
	addl	$8,	%esp
	popl	%edx
	movl	%eax,	%ebx
# LABEL ("L397") / 

L397:

# SLABEL ("L396") / 

L396:

# END / 

	movl	%ebx,	%eax
LLlambda_39_50_epilogue:

	movl	%ebp,	%esp
	popl	%ebp
	popl	%edx
	.cfi_restore	5

	.cfi_def_cfa	4, 4

	ret
	.cfi_endproc

	.set	LLlambda_39_50_SIZE,	0

	.set	LSLlambda_39_50_SIZE,	0

	.size Llambda_39_50, .-Llambda_39_50

# LABEL ("Llambda_40_51") / 

Llambda_40_51:

# BEGIN ("Llambda_40_51", 1, 0, [Access (0)], ["x2"], [{ blab="L400"; elab="L401"; names=[]; subs=[{ blab="L403"; elab="L404"; names=[]; subs=[]; }]; }]) / 

	.type lambda_40_51, @function

	.stabs "lambda_40_51:F1",36,0,0,Llambda_40_51

	.stabs "x2:p1",160,0,0,8

	.cfi_startproc

	pushl	%edx
	pushl	%ebp
	.cfi_def_cfa_offset	12

	.cfi_offset 5, -12

	movl	%esp,	%ebp
	.cfi_def_cfa_register	5

	subl	$LLlambda_40_51_SIZE,	%esp
	movl	%esp,	%edi
	movl	$filler,	%esi
	movl	$LSLlambda_40_51_SIZE,	%ecx
	rep movsl	
# SLABEL ("L400") / 

L400:

# SLABEL ("L403") / 

L403:

# LD (Access (0)) / 

	movl	4(%edx),	%ebx
# LD (Arg (0)) / 

	movl	12(%ebp),	%ecx
# SEXP ("Seq", 2) / 

	movl	$369315,	%esi
	pushl	%edx
	pushl	%esi
	pushl	%ecx
	pushl	%ebx
	pushl	$7
	call	Bsexp
	addl	$16,	%esp
	popl	%edx
	movl	%eax,	%ebx
# SLABEL ("L404") / 

L404:

# LABEL ("L402") / 

L402:

# SLABEL ("L401") / 

L401:

# END / 

	movl	%ebx,	%eax
LLlambda_40_51_epilogue:

	movl	%ebp,	%esp
	popl	%ebp
	popl	%edx
	.cfi_restore	5

	.cfi_def_cfa	4, 4

	ret
	.cfi_endproc

	.set	LLlambda_40_51_SIZE,	0

	.set	LSLlambda_40_51_SIZE,	0

	.size Llambda_40_51, .-Llambda_40_51

# LABEL ("Llambda_31_42") / 

Llambda_31_42:

# BEGIN ("Llambda_31_42", 1, 0, [], ["__tmp208"], [{ blab="L407"; elab="L408"; names=[]; subs=[]; }]) / 

	.type lambda_31_42, @function

	.stabs "lambda_31_42:F1",36,0,0,Llambda_31_42

	.stabs "__tmp208:p1",160,0,0,8

	.cfi_startproc

	pushl	%ebp
	.cfi_def_cfa_offset	8

	.cfi_offset 5, -8

	movl	%esp,	%ebp
	.cfi_def_cfa_register	5

	subl	$LLlambda_31_42_SIZE,	%esp
	movl	%esp,	%edi
	movl	$filler,	%esi
	movl	$LSLlambda_31_42_SIZE,	%ecx
	rep movsl	
# SLABEL ("L407") / 

L407:

# LINE (73) / 

	.stabn 68,0,73,0

	.stabn 68,0,73,.L45-Llambda_31_42

.L45:

# LD (Global ("stmt")) / 

	movl	global_stmt,	%ebx
# CLOSURE ("Llambda_41_54", []) / 

	pushl	%ebx
	pushl	$Llambda_41_54
	pushl	$1
	call	Bclosure
	addl	$8,	%esp
	movl	%eax,	%ecx
	popl	%ebx
# CALL ("Lseq", 2, false) / 

	pushl	%ecx
	pushl	%ebx
	call	Lseq
	addl	$8,	%esp
	movl	%eax,	%ebx
# LD (Global ("stmt")) / 

	movl	global_stmt,	%ecx
# CLOSURE ("Llambda_42_54", []) / 

	pushl	%ebx
	pushl	%ecx
	pushl	$Llambda_42_54
	pushl	$1
	call	Bclosure
	addl	$8,	%esp
	movl	%eax,	%esi
	popl	%ecx
	popl	%ebx
# CALL ("Li__Infix_64", 2, false) / 

	pushl	%ebx
	pushl	%esi
	pushl	%ecx
	call	Li__Infix_64
	addl	$8,	%esp
	popl	%ebx
	movl	%eax,	%ecx
# CALL ("Lalt", 2, false) / 

	pushl	%ecx
	pushl	%ebx
	call	Lalt
	addl	$8,	%esp
	movl	%eax,	%ebx
# CLOSURE ("Llambda_43_54", []) / 

	pushl	%ebx
	pushl	$Llambda_43_54
	pushl	$1
	call	Bclosure
	addl	$8,	%esp
	movl	%eax,	%ecx
	popl	%ebx
# CALL ("Lseq", 2, true) / 

	pushl	%ecx
	pushl	%ebx
	call	Lseq
	addl	$8,	%esp
	movl	%eax,	%ebx
# LABEL ("L409") / 

L409:

# SLABEL ("L408") / 

L408:

# END / 

	movl	%ebx,	%eax
LLlambda_31_42_epilogue:

	movl	%ebp,	%esp
	popl	%ebp
	.cfi_restore	5

	.cfi_def_cfa	4, 4

	ret
	.cfi_endproc

	.set	LLlambda_31_42_SIZE,	0

	.set	LSLlambda_31_42_SIZE,	0

	.size Llambda_31_42, .-Llambda_31_42

# LABEL ("Llambda_43_54") / 

Llambda_43_54:

# BEGIN ("Llambda_43_54", 1, 0, [], ["init"], [{ blab="L418"; elab="L419"; names=[]; subs=[]; }]) / 

	.type lambda_43_54, @function

	.stabs "lambda_43_54:F1",36,0,0,Llambda_43_54

	.stabs "init:p1",160,0,0,8

	.cfi_startproc

	pushl	%ebp
	.cfi_def_cfa_offset	8

	.cfi_offset 5, -8

	movl	%esp,	%ebp
	.cfi_def_cfa_register	5

	subl	$LLlambda_43_54_SIZE,	%esp
	movl	%esp,	%edi
	movl	$filler,	%esi
	movl	$LSLlambda_43_54_SIZE,	%ecx
	rep movsl	
# SLABEL ("L418") / 

L418:

# STRING (",") / 

	movl	$string_15,	%ebx
	pushl	%ebx
	call	Bstring
	addl	$4,	%esp
	movl	%eax,	%ebx
# CALL ("Ls", 1, false) / 

	pushl	%ebx
	call	Ls
	addl	$4,	%esp
	movl	%eax,	%ebx
# CLOSURE ("Llambda_44_55", [Arg (0)]) / 

	pushl	%ebx
	pushl	8(%ebp)
	pushl	$Llambda_44_55
	pushl	$3
	call	Bclosure
	addl	$12,	%esp
	movl	%eax,	%ecx
	popl	%ebx
# CALL ("Lseq", 2, true) / 

	pushl	%ecx
	pushl	%ebx
	call	Lseq
	addl	$8,	%esp
	movl	%eax,	%ebx
# LABEL ("L420") / 

L420:

# SLABEL ("L419") / 

L419:

# END / 

	movl	%ebx,	%eax
LLlambda_43_54_epilogue:

	movl	%ebp,	%esp
	popl	%ebp
	.cfi_restore	5

	.cfi_def_cfa	4, 4

	ret
	.cfi_endproc

	.set	LLlambda_43_54_SIZE,	0

	.set	LSLlambda_43_54_SIZE,	0

	.size Llambda_43_54, .-Llambda_43_54

# LABEL ("Llambda_44_55") / 

Llambda_44_55:

# BEGIN ("Llambda_44_55", 1, 0, [Arg (0)], ["__tmp207"], [{ blab="L424"; elab="L425"; names=[]; subs=[]; }]) / 

	.type lambda_44_55, @function

	.stabs "lambda_44_55:F1",36,0,0,Llambda_44_55

	.stabs "__tmp207:p1",160,0,0,8

	.cfi_startproc

	pushl	%edx
	pushl	%ebp
	.cfi_def_cfa_offset	12

	.cfi_offset 5, -12

	movl	%esp,	%ebp
	.cfi_def_cfa_register	5

	subl	$LLlambda_44_55_SIZE,	%esp
	movl	%esp,	%edi
	movl	$filler,	%esi
	movl	$LSLlambda_44_55_SIZE,	%ecx
	rep movsl	
# SLABEL ("L424") / 

L424:

# LD (Global ("exp")) / 

	movl	global_exp,	%ebx
# CLOSURE ("Llambda_45_56", [Access (0)]) / 

	pushl	%ebx
	pushl	4(%edx)
	pushl	$Llambda_45_56
	pushl	$3
	call	Bclosure
	addl	$12,	%esp
	movl	%eax,	%ecx
	popl	%ebx
	movl	4(%ebp),	%edx
# CALL ("Lseq", 2, true) / 

	pushl	%edx
	pushl	%ecx
	pushl	%ebx
	call	Lseq
	addl	$8,	%esp
	popl	%edx
	movl	%eax,	%ebx
# LABEL ("L426") / 

L426:

# SLABEL ("L425") / 

L425:

# END / 

	movl	%ebx,	%eax
LLlambda_44_55_epilogue:

	movl	%ebp,	%esp
	popl	%ebp
	popl	%edx
	.cfi_restore	5

	.cfi_def_cfa	4, 4

	ret
	.cfi_endproc

	.set	LLlambda_44_55_SIZE,	0

	.set	LSLlambda_44_55_SIZE,	0

	.size Llambda_44_55, .-Llambda_44_55

# LABEL ("Llambda_45_56") / 

Llambda_45_56:

# BEGIN ("Llambda_45_56", 1, 0, [Access (0)], ["c"], [{ blab="L429"; elab="L430"; names=[]; subs=[]; }]) / 

	.type lambda_45_56, @function

	.stabs "lambda_45_56:F1",36,0,0,Llambda_45_56

	.stabs "c:p1",160,0,0,8

	.cfi_startproc

	pushl	%edx
	pushl	%ebp
	.cfi_def_cfa_offset	12

	.cfi_offset 5, -12

	movl	%esp,	%ebp
	.cfi_def_cfa_register	5

	subl	$LLlambda_45_56_SIZE,	%esp
	movl	%esp,	%edi
	movl	$filler,	%esi
	movl	$LSLlambda_45_56_SIZE,	%ecx
	rep movsl	
# SLABEL ("L429") / 

L429:

# STRING (",") / 

	movl	$string_15,	%ebx
	pushl	%edx
	pushl	%ebx
	call	Bstring
	addl	$4,	%esp
	popl	%edx
	movl	%eax,	%ebx
# CALL ("Ls", 1, false) / 

	pushl	%edx
	pushl	%ebx
	call	Ls
	addl	$4,	%esp
	popl	%edx
	movl	%eax,	%ebx
# CLOSURE ("Llambda_46_57", [Access (0); Arg (0)]) / 

	pushl	%ebx
	pushl	12(%ebp)
	pushl	4(%edx)
	pushl	$Llambda_46_57
	pushl	$5
	call	Bclosure
	addl	$16,	%esp
	movl	%eax,	%ecx
	popl	%ebx
	movl	4(%ebp),	%edx
# CALL ("Lseq", 2, true) / 

	pushl	%edx
	pushl	%ecx
	pushl	%ebx
	call	Lseq
	addl	$8,	%esp
	popl	%edx
	movl	%eax,	%ebx
# LABEL ("L431") / 

L431:

# SLABEL ("L430") / 

L430:

# END / 

	movl	%ebx,	%eax
LLlambda_45_56_epilogue:

	movl	%ebp,	%esp
	popl	%ebp
	popl	%edx
	.cfi_restore	5

	.cfi_def_cfa	4, 4

	ret
	.cfi_endproc

	.set	LLlambda_45_56_SIZE,	0

	.set	LSLlambda_45_56_SIZE,	0

	.size Llambda_45_56, .-Llambda_45_56

# LABEL ("Llambda_46_57") / 

Llambda_46_57:

# BEGIN ("Llambda_46_57", 1, 0, [Access (0); Arg (0)], ["__tmp206"], [{ blab="L435"; elab="L436"; names=[]; subs=[]; }]) / 

	.type lambda_46_57, @function

	.stabs "lambda_46_57:F1",36,0,0,Llambda_46_57

	.stabs "__tmp206:p1",160,0,0,8

	.cfi_startproc

	pushl	%edx
	pushl	%ebp
	.cfi_def_cfa_offset	12

	.cfi_offset 5, -12

	movl	%esp,	%ebp
	.cfi_def_cfa_register	5

	subl	$LLlambda_46_57_SIZE,	%esp
	movl	%esp,	%edi
	movl	$filler,	%esi
	movl	$LSLlambda_46_57_SIZE,	%ecx
	rep movsl	
# SLABEL ("L435") / 

L435:

# LD (Global ("stmt")) / 

	movl	global_stmt,	%ebx
# CLOSURE ("Llambda_47_58", []) / 

	pushl	%ebx
	pushl	$Llambda_47_58
	pushl	$1
	call	Bclosure
	addl	$8,	%esp
	movl	%eax,	%ecx
	popl	%ebx
	movl	4(%ebp),	%edx
# CALL ("Lseq", 2, false) / 

	pushl	%edx
	pushl	%ecx
	pushl	%ebx
	call	Lseq
	addl	$8,	%esp
	popl	%edx
	movl	%eax,	%ebx
# LD (Global ("stmt")) / 

	movl	global_stmt,	%ecx
# CLOSURE ("Llambda_48_58", []) / 

	pushl	%ebx
	pushl	%ecx
	pushl	$Llambda_48_58
	pushl	$1
	call	Bclosure
	addl	$8,	%esp
	movl	%eax,	%esi
	popl	%ecx
	popl	%ebx
	movl	4(%ebp),	%edx
# CALL ("Li__Infix_64", 2, false) / 

	pushl	%edx
	pushl	%ebx
	pushl	%esi
	pushl	%ecx
	call	Li__Infix_64
	addl	$8,	%esp
	popl	%ebx
	popl	%edx
	movl	%eax,	%ecx
# CALL ("Lalt", 2, false) / 

	pushl	%edx
	pushl	%ecx
	pushl	%ebx
	call	Lalt
	addl	$8,	%esp
	popl	%edx
	movl	%eax,	%ebx
# CLOSURE ("Llambda_49_58", [Access (0); Access (1)]) / 

	pushl	%ebx
	pushl	8(%edx)
	pushl	4(%edx)
	pushl	$Llambda_49_58
	pushl	$5
	call	Bclosure
	addl	$16,	%esp
	movl	%eax,	%ecx
	popl	%ebx
	movl	4(%ebp),	%edx
# CALL ("Lseq", 2, true) / 

	pushl	%edx
	pushl	%ecx
	pushl	%ebx
	call	Lseq
	addl	$8,	%esp
	popl	%edx
	movl	%eax,	%ebx
# LABEL ("L437") / 

L437:

# SLABEL ("L436") / 

L436:

# END / 

	movl	%ebx,	%eax
LLlambda_46_57_epilogue:

	movl	%ebp,	%esp
	popl	%ebp
	popl	%edx
	.cfi_restore	5

	.cfi_def_cfa	4, 4

	ret
	.cfi_endproc

	.set	LLlambda_46_57_SIZE,	0

	.set	LSLlambda_46_57_SIZE,	0

	.size Llambda_46_57, .-Llambda_46_57

# LABEL ("Llambda_49_58") / 

Llambda_49_58:

# BEGIN ("Llambda_49_58", 1, 0, [Access (0); Access (1)], ["post"], [{ blab="L446"; elab="L447"; names=[]; subs=[]; }]) / 

	.type lambda_49_58, @function

	.stabs "lambda_49_58:F1",36,0,0,Llambda_49_58

	.stabs "post:p1",160,0,0,8

	.cfi_startproc

	pushl	%edx
	pushl	%ebp
	.cfi_def_cfa_offset	12

	.cfi_offset 5, -12

	movl	%esp,	%ebp
	.cfi_def_cfa_register	5

	subl	$LLlambda_49_58_SIZE,	%esp
	movl	%esp,	%edi
	movl	$filler,	%esi
	movl	$LSLlambda_49_58_SIZE,	%ecx
	rep movsl	
# SLABEL ("L446") / 

L446:

# LD (Global ("kDo")) / 

	movl	global_kDo,	%ebx
# CLOSURE ("Llambda_50_59", [Access (0); Access (1); Arg (0)]) / 

	pushl	%ebx
	pushl	12(%ebp)
	pushl	8(%edx)
	pushl	4(%edx)
	pushl	$Llambda_50_59
	pushl	$7
	call	Bclosure
	addl	$20,	%esp
	movl	%eax,	%ecx
	popl	%ebx
	movl	4(%ebp),	%edx
# CALL ("Lseq", 2, true) / 

	pushl	%edx
	pushl	%ecx
	pushl	%ebx
	call	Lseq
	addl	$8,	%esp
	popl	%edx
	movl	%eax,	%ebx
# LABEL ("L448") / 

L448:

# SLABEL ("L447") / 

L447:

# END / 

	movl	%ebx,	%eax
LLlambda_49_58_epilogue:

	movl	%ebp,	%esp
	popl	%ebp
	popl	%edx
	.cfi_restore	5

	.cfi_def_cfa	4, 4

	ret
	.cfi_endproc

	.set	LLlambda_49_58_SIZE,	0

	.set	LSLlambda_49_58_SIZE,	0

	.size Llambda_49_58, .-Llambda_49_58

# LABEL ("Llambda_50_59") / 

Llambda_50_59:

# BEGIN ("Llambda_50_59", 1, 0, [Access (0); Access (1); Arg (0)], ["__tmp205"], [{ blab="L451"; elab="L452"; names=[]; subs=[]; }]) / 

	.type lambda_50_59, @function

	.stabs "lambda_50_59:F1",36,0,0,Llambda_50_59

	.stabs "__tmp205:p1",160,0,0,8

	.cfi_startproc

	pushl	%edx
	pushl	%ebp
	.cfi_def_cfa_offset	12

	.cfi_offset 5, -12

	movl	%esp,	%ebp
	.cfi_def_cfa_register	5

	subl	$LLlambda_50_59_SIZE,	%esp
	movl	%esp,	%edi
	movl	$filler,	%esi
	movl	$LSLlambda_50_59_SIZE,	%ecx
	rep movsl	
# SLABEL ("L451") / 

L451:

# LD (Global ("stmt")) / 

	movl	global_stmt,	%ebx
# CLOSURE ("Llambda_51_60", []) / 

	pushl	%ebx
	pushl	$Llambda_51_60
	pushl	$1
	call	Bclosure
	addl	$8,	%esp
	movl	%eax,	%ecx
	popl	%ebx
	movl	4(%ebp),	%edx
# CALL ("Lseq", 2, false) / 

	pushl	%edx
	pushl	%ecx
	pushl	%ebx
	call	Lseq
	addl	$8,	%esp
	popl	%edx
	movl	%eax,	%ebx
# LD (Global ("stmt")) / 

	movl	global_stmt,	%ecx
# CLOSURE ("Llambda_52_60", []) / 

	pushl	%ebx
	pushl	%ecx
	pushl	$Llambda_52_60
	pushl	$1
	call	Bclosure
	addl	$8,	%esp
	movl	%eax,	%esi
	popl	%ecx
	popl	%ebx
	movl	4(%ebp),	%edx
# CALL ("Li__Infix_64", 2, false) / 

	pushl	%edx
	pushl	%ebx
	pushl	%esi
	pushl	%ecx
	call	Li__Infix_64
	addl	$8,	%esp
	popl	%ebx
	popl	%edx
	movl	%eax,	%ecx
# CALL ("Lalt", 2, false) / 

	pushl	%edx
	pushl	%ecx
	pushl	%ebx
	call	Lalt
	addl	$8,	%esp
	popl	%edx
	movl	%eax,	%ebx
# CLOSURE ("Llambda_53_60", [Access (0); Access (1); Access (2)]) / 

	pushl	%ebx
	pushl	12(%edx)
	pushl	8(%edx)
	pushl	4(%edx)
	pushl	$Llambda_53_60
	pushl	$7
	call	Bclosure
	addl	$20,	%esp
	movl	%eax,	%ecx
	popl	%ebx
	movl	4(%ebp),	%edx
# CALL ("Lseq", 2, true) / 

	pushl	%edx
	pushl	%ecx
	pushl	%ebx
	call	Lseq
	addl	$8,	%esp
	popl	%edx
	movl	%eax,	%ebx
# LABEL ("L453") / 

L453:

# SLABEL ("L452") / 

L452:

# END / 

	movl	%ebx,	%eax
LLlambda_50_59_epilogue:

	movl	%ebp,	%esp
	popl	%ebp
	popl	%edx
	.cfi_restore	5

	.cfi_def_cfa	4, 4

	ret
	.cfi_endproc

	.set	LLlambda_50_59_SIZE,	0

	.set	LSLlambda_50_59_SIZE,	0

	.size Llambda_50_59, .-Llambda_50_59

# LABEL ("Llambda_53_60") / 

Llambda_53_60:

# BEGIN ("Llambda_53_60", 1, 0, [Access (0); Access (1); Access (2)], ["f"], [{ blab="L462"; elab="L463"; names=[]; subs=[]; }]) / 

	.type lambda_53_60, @function

	.stabs "lambda_53_60:F1",36,0,0,Llambda_53_60

	.stabs "f:p1",160,0,0,8

	.cfi_startproc

	pushl	%edx
	pushl	%ebp
	.cfi_def_cfa_offset	12

	.cfi_offset 5, -12

	movl	%esp,	%ebp
	.cfi_def_cfa_register	5

	subl	$LLlambda_53_60_SIZE,	%esp
	movl	%esp,	%edi
	movl	$filler,	%esi
	movl	$LSLlambda_53_60_SIZE,	%ecx
	rep movsl	
# SLABEL ("L462") / 

L462:

# LD (Global ("kOd")) / 

	movl	global_kOd,	%ebx
# CLOSURE ("Llambda_54_61", [Access (0); Access (1); Arg (0); Access (2)]) / 

	pushl	%ebx
	pushl	12(%edx)
	pushl	12(%ebp)
	pushl	8(%edx)
	pushl	4(%edx)
	pushl	$Llambda_54_61
	pushl	$9
	call	Bclosure
	addl	$24,	%esp
	movl	%eax,	%ecx
	popl	%ebx
	movl	4(%ebp),	%edx
# CALL ("Li__Infix_64", 2, true) / 

	pushl	%edx
	pushl	%ecx
	pushl	%ebx
	call	Li__Infix_64
	addl	$8,	%esp
	popl	%edx
	movl	%eax,	%ebx
# LABEL ("L464") / 

L464:

# SLABEL ("L463") / 

L463:

# END / 

	movl	%ebx,	%eax
LLlambda_53_60_epilogue:

	movl	%ebp,	%esp
	popl	%ebp
	popl	%edx
	.cfi_restore	5

	.cfi_def_cfa	4, 4

	ret
	.cfi_endproc

	.set	LLlambda_53_60_SIZE,	0

	.set	LSLlambda_53_60_SIZE,	0

	.size Llambda_53_60, .-Llambda_53_60

# LABEL ("Llambda_54_61") / 

Llambda_54_61:

# BEGIN ("Llambda_54_61", 1, 0, [Access (0); Access (1); Arg (0); Access (2)], ["__tmp204"], [{ blab="L467"; elab="L468"; names=[]; subs=[{ blab="L470"; elab="L471"; names=[]; subs=[]; }]; }]) / 

	.type lambda_54_61, @function

	.stabs "lambda_54_61:F1",36,0,0,Llambda_54_61

	.stabs "__tmp204:p1",160,0,0,8

	.cfi_startproc

	pushl	%edx
	pushl	%ebp
	.cfi_def_cfa_offset	12

	.cfi_offset 5, -12

	movl	%esp,	%ebp
	.cfi_def_cfa_register	5

	subl	$LLlambda_54_61_SIZE,	%esp
	movl	%esp,	%edi
	movl	$filler,	%esi
	movl	$LSLlambda_54_61_SIZE,	%ecx
	rep movsl	
# SLABEL ("L467") / 

L467:

# SLABEL ("L470") / 

L470:

# LINE (74) / 

	.stabn 68,0,74,0

	.stabn 68,0,74,.L46-Llambda_54_61

.L46:

# LD (Access (0)) / 

	movl	4(%edx),	%ebx
# LD (Access (1)) / 

	movl	8(%edx),	%ecx
# LD (Access (2)) / 

	movl	12(%edx),	%esi
# LD (Access (3)) / 

	movl	16(%edx),	%edi
# SEXP ("Seq", 2) / 

	movl	$369315,	-4(%ebp)
	pushl	%edx
	pushl	%ebx
	pushl	%ecx
	pushl	-4(%ebp)
	pushl	%edi
	pushl	%esi
	pushl	$7
	call	Bsexp
	addl	$16,	%esp
	popl	%ecx
	popl	%ebx
	popl	%edx
	movl	%eax,	%esi
# CALL ("LbuildSeqForWhile", 3, true) / 

	pushl	%edx
	pushl	%esi
	pushl	%ecx
	pushl	%ebx
	call	LbuildSeqForWhile
	addl	$12,	%esp
	popl	%edx
	movl	%eax,	%ebx
# SLABEL ("L471") / 

L471:

# LABEL ("L469") / 

L469:

# SLABEL ("L468") / 

L468:

# END / 

	movl	%ebx,	%eax
LLlambda_54_61_epilogue:

	movl	%ebp,	%esp
	popl	%ebp
	popl	%edx
	.cfi_restore	5

	.cfi_def_cfa	4, 4

	ret
	.cfi_endproc

	.set	LLlambda_54_61_SIZE,	4

	.set	LSLlambda_54_61_SIZE,	1

	.size Llambda_54_61, .-Llambda_54_61

# LABEL ("Llambda_52_60") / 

Llambda_52_60:

# BEGIN ("Llambda_52_60", 1, 0, [], ["__tmp194"], [{ blab="L477"; elab="L478"; names=[]; subs=[]; }]) / 

	.type lambda_52_60, @function

	.stabs "lambda_52_60:F1",36,0,0,Llambda_52_60

	.stabs "__tmp194:p1",160,0,0,8

	.cfi_startproc

	pushl	%ebp
	.cfi_def_cfa_offset	8

	.cfi_offset 5, -8

	movl	%esp,	%ebp
	.cfi_def_cfa_register	5

	subl	$LLlambda_52_60_SIZE,	%esp
	movl	%esp,	%edi
	movl	$filler,	%esi
	movl	$LSLlambda_52_60_SIZE,	%ecx
	rep movsl	
# SLABEL ("L477") / 

L477:

# LD (Arg (0)) / 

	movl	8(%ebp),	%ebx
# LABEL ("L479") / 

L479:

# SLABEL ("L478") / 

L478:

# END / 

	movl	%ebx,	%eax
LLlambda_52_60_epilogue:

	movl	%ebp,	%esp
	popl	%ebp
	.cfi_restore	5

	.cfi_def_cfa	4, 4

	ret
	.cfi_endproc

	.set	LLlambda_52_60_SIZE,	0

	.set	LSLlambda_52_60_SIZE,	0

	.size Llambda_52_60, .-Llambda_52_60

# LABEL ("Llambda_51_60") / 

Llambda_51_60:

# BEGIN ("Llambda_51_60", 1, 0, [], ["x1"], [{ blab="L480"; elab="L481"; names=[]; subs=[]; }]) / 

	.type lambda_51_60, @function

	.stabs "lambda_51_60:F1",36,0,0,Llambda_51_60

	.stabs "x1:p1",160,0,0,8

	.cfi_startproc

	pushl	%ebp
	.cfi_def_cfa_offset	8

	.cfi_offset 5, -8

	movl	%esp,	%ebp
	.cfi_def_cfa_register	5

	subl	$LLlambda_51_60_SIZE,	%esp
	movl	%esp,	%edi
	movl	$filler,	%esi
	movl	$LSLlambda_51_60_SIZE,	%ecx
	rep movsl	
# SLABEL ("L480") / 

L480:

# LINE (73) / 

	.stabn 68,0,73,0

	.stabn 68,0,73,.L47-Llambda_51_60

.L47:

# STRING (";") / 

	movl	$string_13,	%ebx
	pushl	%ebx
	call	Bstring
	addl	$4,	%esp
	movl	%eax,	%ebx
# CALL ("Ls", 1, false) / 

	pushl	%ebx
	call	Ls
	addl	$4,	%esp
	movl	%eax,	%ebx
# CLOSURE ("Llambda_55_65", [Arg (0)]) / 

	pushl	%ebx
	pushl	8(%ebp)
	pushl	$Llambda_55_65
	pushl	$3
	call	Bclosure
	addl	$12,	%esp
	movl	%eax,	%ecx
	popl	%ebx
# CALL ("Lseq", 2, true) / 

	pushl	%ecx
	pushl	%ebx
	call	Lseq
	addl	$8,	%esp
	movl	%eax,	%ebx
# LABEL ("L482") / 

L482:

# SLABEL ("L481") / 

L481:

# END / 

	movl	%ebx,	%eax
LLlambda_51_60_epilogue:

	movl	%ebp,	%esp
	popl	%ebp
	.cfi_restore	5

	.cfi_def_cfa	4, 4

	ret
	.cfi_endproc

	.set	LLlambda_51_60_SIZE,	0

	.set	LSLlambda_51_60_SIZE,	0

	.size Llambda_51_60, .-Llambda_51_60

# LABEL ("Llambda_55_65") / 

Llambda_55_65:

# BEGIN ("Llambda_55_65", 1, 0, [Arg (0)], ["__tmp193"], [{ blab="L486"; elab="L487"; names=[]; subs=[]; }]) / 

	.type lambda_55_65, @function

	.stabs "lambda_55_65:F1",36,0,0,Llambda_55_65

	.stabs "__tmp193:p1",160,0,0,8

	.cfi_startproc

	pushl	%edx
	pushl	%ebp
	.cfi_def_cfa_offset	12

	.cfi_offset 5, -12

	movl	%esp,	%ebp
	.cfi_def_cfa_register	5

	subl	$LLlambda_55_65_SIZE,	%esp
	movl	%esp,	%edi
	movl	$filler,	%esi
	movl	$LSLlambda_55_65_SIZE,	%ecx
	rep movsl	
# SLABEL ("L486") / 

L486:

# LD (Global ("parse")) / 

	movl	global_parse,	%ebx
# CLOSURE ("Llambda_56_66", [Access (0)]) / 

	pushl	%ebx
	pushl	4(%edx)
	pushl	$Llambda_56_66
	pushl	$3
	call	Bclosure
	addl	$12,	%esp
	movl	%eax,	%ecx
	popl	%ebx
	movl	4(%ebp),	%edx
# CALL ("Li__Infix_64", 2, true) / 

	pushl	%edx
	pushl	%ecx
	pushl	%ebx
	call	Li__Infix_64
	addl	$8,	%esp
	popl	%edx
	movl	%eax,	%ebx
# LABEL ("L488") / 

L488:

# SLABEL ("L487") / 

L487:

# END / 

	movl	%ebx,	%eax
LLlambda_55_65_epilogue:

	movl	%ebp,	%esp
	popl	%ebp
	popl	%edx
	.cfi_restore	5

	.cfi_def_cfa	4, 4

	ret
	.cfi_endproc

	.set	LLlambda_55_65_SIZE,	0

	.set	LSLlambda_55_65_SIZE,	0

	.size Llambda_55_65, .-Llambda_55_65

# LABEL ("Llambda_56_66") / 

Llambda_56_66:

# BEGIN ("Llambda_56_66", 1, 0, [Access (0)], ["x2"], [{ blab="L491"; elab="L492"; names=[]; subs=[{ blab="L494"; elab="L495"; names=[]; subs=[]; }]; }]) / 

	.type lambda_56_66, @function

	.stabs "lambda_56_66:F1",36,0,0,Llambda_56_66

	.stabs "x2:p1",160,0,0,8

	.cfi_startproc

	pushl	%edx
	pushl	%ebp
	.cfi_def_cfa_offset	12

	.cfi_offset 5, -12

	movl	%esp,	%ebp
	.cfi_def_cfa_register	5

	subl	$LLlambda_56_66_SIZE,	%esp
	movl	%esp,	%edi
	movl	$filler,	%esi
	movl	$LSLlambda_56_66_SIZE,	%ecx
	rep movsl	
# SLABEL ("L491") / 

L491:

# SLABEL ("L494") / 

L494:

# LD (Access (0)) / 

	movl	4(%edx),	%ebx
# LD (Arg (0)) / 

	movl	12(%ebp),	%ecx
# SEXP ("Seq", 2) / 

	movl	$369315,	%esi
	pushl	%edx
	pushl	%esi
	pushl	%ecx
	pushl	%ebx
	pushl	$7
	call	Bsexp
	addl	$16,	%esp
	popl	%edx
	movl	%eax,	%ebx
# SLABEL ("L495") / 

L495:

# LABEL ("L493") / 

L493:

# SLABEL ("L492") / 

L492:

# END / 

	movl	%ebx,	%eax
LLlambda_56_66_epilogue:

	movl	%ebp,	%esp
	popl	%ebp
	popl	%edx
	.cfi_restore	5

	.cfi_def_cfa	4, 4

	ret
	.cfi_endproc

	.set	LLlambda_56_66_SIZE,	0

	.set	LSLlambda_56_66_SIZE,	0

	.size Llambda_56_66, .-Llambda_56_66

# LABEL ("Llambda_48_58") / 

Llambda_48_58:

# BEGIN ("Llambda_48_58", 1, 0, [], ["__tmp174"], [{ blab="L498"; elab="L499"; names=[]; subs=[]; }]) / 

	.type lambda_48_58, @function

	.stabs "lambda_48_58:F1",36,0,0,Llambda_48_58

	.stabs "__tmp174:p1",160,0,0,8

	.cfi_startproc

	pushl	%ebp
	.cfi_def_cfa_offset	8

	.cfi_offset 5, -8

	movl	%esp,	%ebp
	.cfi_def_cfa_register	5

	subl	$LLlambda_48_58_SIZE,	%esp
	movl	%esp,	%edi
	movl	$filler,	%esi
	movl	$LSLlambda_48_58_SIZE,	%ecx
	rep movsl	
# SLABEL ("L498") / 

L498:

# LD (Arg (0)) / 

	movl	8(%ebp),	%ebx
# LABEL ("L500") / 

L500:

# SLABEL ("L499") / 

L499:

# END / 

	movl	%ebx,	%eax
LLlambda_48_58_epilogue:

	movl	%ebp,	%esp
	popl	%ebp
	.cfi_restore	5

	.cfi_def_cfa	4, 4

	ret
	.cfi_endproc

	.set	LLlambda_48_58_SIZE,	0

	.set	LSLlambda_48_58_SIZE,	0

	.size Llambda_48_58, .-Llambda_48_58

# LABEL ("Llambda_47_58") / 

Llambda_47_58:

# BEGIN ("Llambda_47_58", 1, 0, [], ["x1"], [{ blab="L501"; elab="L502"; names=[]; subs=[]; }]) / 

	.type lambda_47_58, @function

	.stabs "lambda_47_58:F1",36,0,0,Llambda_47_58

	.stabs "x1:p1",160,0,0,8

	.cfi_startproc

	pushl	%ebp
	.cfi_def_cfa_offset	8

	.cfi_offset 5, -8

	movl	%esp,	%ebp
	.cfi_def_cfa_register	5

	subl	$LLlambda_47_58_SIZE,	%esp
	movl	%esp,	%edi
	movl	$filler,	%esi
	movl	$LSLlambda_47_58_SIZE,	%ecx
	rep movsl	
# SLABEL ("L501") / 

L501:

# STRING (";") / 

	movl	$string_13,	%ebx
	pushl	%ebx
	call	Bstring
	addl	$4,	%esp
	movl	%eax,	%ebx
# CALL ("Ls", 1, false) / 

	pushl	%ebx
	call	Ls
	addl	$4,	%esp
	movl	%eax,	%ebx
# CLOSURE ("Llambda_57_70", [Arg (0)]) / 

	pushl	%ebx
	pushl	8(%ebp)
	pushl	$Llambda_57_70
	pushl	$3
	call	Bclosure
	addl	$12,	%esp
	movl	%eax,	%ecx
	popl	%ebx
# CALL ("Lseq", 2, true) / 

	pushl	%ecx
	pushl	%ebx
	call	Lseq
	addl	$8,	%esp
	movl	%eax,	%ebx
# LABEL ("L503") / 

L503:

# SLABEL ("L502") / 

L502:

# END / 

	movl	%ebx,	%eax
LLlambda_47_58_epilogue:

	movl	%ebp,	%esp
	popl	%ebp
	.cfi_restore	5

	.cfi_def_cfa	4, 4

	ret
	.cfi_endproc

	.set	LLlambda_47_58_SIZE,	0

	.set	LSLlambda_47_58_SIZE,	0

	.size Llambda_47_58, .-Llambda_47_58

# LABEL ("Llambda_57_70") / 

Llambda_57_70:

# BEGIN ("Llambda_57_70", 1, 0, [Arg (0)], ["__tmp173"], [{ blab="L507"; elab="L508"; names=[]; subs=[]; }]) / 

	.type lambda_57_70, @function

	.stabs "lambda_57_70:F1",36,0,0,Llambda_57_70

	.stabs "__tmp173:p1",160,0,0,8

	.cfi_startproc

	pushl	%edx
	pushl	%ebp
	.cfi_def_cfa_offset	12

	.cfi_offset 5, -12

	movl	%esp,	%ebp
	.cfi_def_cfa_register	5

	subl	$LLlambda_57_70_SIZE,	%esp
	movl	%esp,	%edi
	movl	$filler,	%esi
	movl	$LSLlambda_57_70_SIZE,	%ecx
	rep movsl	
# SLABEL ("L507") / 

L507:

# LD (Global ("parse")) / 

	movl	global_parse,	%ebx
# CLOSURE ("Llambda_58_71", [Access (0)]) / 

	pushl	%ebx
	pushl	4(%edx)
	pushl	$Llambda_58_71
	pushl	$3
	call	Bclosure
	addl	$12,	%esp
	movl	%eax,	%ecx
	popl	%ebx
	movl	4(%ebp),	%edx
# CALL ("Li__Infix_64", 2, true) / 

	pushl	%edx
	pushl	%ecx
	pushl	%ebx
	call	Li__Infix_64
	addl	$8,	%esp
	popl	%edx
	movl	%eax,	%ebx
# LABEL ("L509") / 

L509:

# SLABEL ("L508") / 

L508:

# END / 

	movl	%ebx,	%eax
LLlambda_57_70_epilogue:

	movl	%ebp,	%esp
	popl	%ebp
	popl	%edx
	.cfi_restore	5

	.cfi_def_cfa	4, 4

	ret
	.cfi_endproc

	.set	LLlambda_57_70_SIZE,	0

	.set	LSLlambda_57_70_SIZE,	0

	.size Llambda_57_70, .-Llambda_57_70

# LABEL ("Llambda_58_71") / 

Llambda_58_71:

# BEGIN ("Llambda_58_71", 1, 0, [Access (0)], ["x2"], [{ blab="L512"; elab="L513"; names=[]; subs=[{ blab="L515"; elab="L516"; names=[]; subs=[]; }]; }]) / 

	.type lambda_58_71, @function

	.stabs "lambda_58_71:F1",36,0,0,Llambda_58_71

	.stabs "x2:p1",160,0,0,8

	.cfi_startproc

	pushl	%edx
	pushl	%ebp
	.cfi_def_cfa_offset	12

	.cfi_offset 5, -12

	movl	%esp,	%ebp
	.cfi_def_cfa_register	5

	subl	$LLlambda_58_71_SIZE,	%esp
	movl	%esp,	%edi
	movl	$filler,	%esi
	movl	$LSLlambda_58_71_SIZE,	%ecx
	rep movsl	
# SLABEL ("L512") / 

L512:

# SLABEL ("L515") / 

L515:

# LD (Access (0)) / 

	movl	4(%edx),	%ebx
# LD (Arg (0)) / 

	movl	12(%ebp),	%ecx
# SEXP ("Seq", 2) / 

	movl	$369315,	%esi
	pushl	%edx
	pushl	%esi
	pushl	%ecx
	pushl	%ebx
	pushl	$7
	call	Bsexp
	addl	$16,	%esp
	popl	%edx
	movl	%eax,	%ebx
# SLABEL ("L516") / 

L516:

# LABEL ("L514") / 

L514:

# SLABEL ("L513") / 

L513:

# END / 

	movl	%ebx,	%eax
LLlambda_58_71_epilogue:

	movl	%ebp,	%esp
	popl	%ebp
	popl	%edx
	.cfi_restore	5

	.cfi_def_cfa	4, 4

	ret
	.cfi_endproc

	.set	LLlambda_58_71_SIZE,	0

	.set	LSLlambda_58_71_SIZE,	0

	.size Llambda_58_71, .-Llambda_58_71

# LABEL ("Llambda_42_54") / 

Llambda_42_54:

# BEGIN ("Llambda_42_54", 1, 0, [], ["__tmp146"], [{ blab="L519"; elab="L520"; names=[]; subs=[]; }]) / 

	.type lambda_42_54, @function

	.stabs "lambda_42_54:F1",36,0,0,Llambda_42_54

	.stabs "__tmp146:p1",160,0,0,8

	.cfi_startproc

	pushl	%ebp
	.cfi_def_cfa_offset	8

	.cfi_offset 5, -8

	movl	%esp,	%ebp
	.cfi_def_cfa_register	5

	subl	$LLlambda_42_54_SIZE,	%esp
	movl	%esp,	%edi
	movl	$filler,	%esi
	movl	$LSLlambda_42_54_SIZE,	%ecx
	rep movsl	
# SLABEL ("L519") / 

L519:

# LD (Arg (0)) / 

	movl	8(%ebp),	%ebx
# LABEL ("L521") / 

L521:

# SLABEL ("L520") / 

L520:

# END / 

	movl	%ebx,	%eax
LLlambda_42_54_epilogue:

	movl	%ebp,	%esp
	popl	%ebp
	.cfi_restore	5

	.cfi_def_cfa	4, 4

	ret
	.cfi_endproc

	.set	LLlambda_42_54_SIZE,	0

	.set	LSLlambda_42_54_SIZE,	0

	.size Llambda_42_54, .-Llambda_42_54

# LABEL ("Llambda_41_54") / 

Llambda_41_54:

# BEGIN ("Llambda_41_54", 1, 0, [], ["x1"], [{ blab="L522"; elab="L523"; names=[]; subs=[]; }]) / 

	.type lambda_41_54, @function

	.stabs "lambda_41_54:F1",36,0,0,Llambda_41_54

	.stabs "x1:p1",160,0,0,8

	.cfi_startproc

	pushl	%ebp
	.cfi_def_cfa_offset	8

	.cfi_offset 5, -8

	movl	%esp,	%ebp
	.cfi_def_cfa_register	5

	subl	$LLlambda_41_54_SIZE,	%esp
	movl	%esp,	%edi
	movl	$filler,	%esi
	movl	$LSLlambda_41_54_SIZE,	%ecx
	rep movsl	
# SLABEL ("L522") / 

L522:

# STRING (";") / 

	movl	$string_13,	%ebx
	pushl	%ebx
	call	Bstring
	addl	$4,	%esp
	movl	%eax,	%ebx
# CALL ("Ls", 1, false) / 

	pushl	%ebx
	call	Ls
	addl	$4,	%esp
	movl	%eax,	%ebx
# CLOSURE ("Llambda_59_75", [Arg (0)]) / 

	pushl	%ebx
	pushl	8(%ebp)
	pushl	$Llambda_59_75
	pushl	$3
	call	Bclosure
	addl	$12,	%esp
	movl	%eax,	%ecx
	popl	%ebx
# CALL ("Lseq", 2, true) / 

	pushl	%ecx
	pushl	%ebx
	call	Lseq
	addl	$8,	%esp
	movl	%eax,	%ebx
# LABEL ("L524") / 

L524:

# SLABEL ("L523") / 

L523:

# END / 

	movl	%ebx,	%eax
LLlambda_41_54_epilogue:

	movl	%ebp,	%esp
	popl	%ebp
	.cfi_restore	5

	.cfi_def_cfa	4, 4

	ret
	.cfi_endproc

	.set	LLlambda_41_54_SIZE,	0

	.set	LSLlambda_41_54_SIZE,	0

	.size Llambda_41_54, .-Llambda_41_54

# LABEL ("Llambda_59_75") / 

Llambda_59_75:

# BEGIN ("Llambda_59_75", 1, 0, [Arg (0)], ["__tmp145"], [{ blab="L528"; elab="L529"; names=[]; subs=[]; }]) / 

	.type lambda_59_75, @function

	.stabs "lambda_59_75:F1",36,0,0,Llambda_59_75

	.stabs "__tmp145:p1",160,0,0,8

	.cfi_startproc

	pushl	%edx
	pushl	%ebp
	.cfi_def_cfa_offset	12

	.cfi_offset 5, -12

	movl	%esp,	%ebp
	.cfi_def_cfa_register	5

	subl	$LLlambda_59_75_SIZE,	%esp
	movl	%esp,	%edi
	movl	$filler,	%esi
	movl	$LSLlambda_59_75_SIZE,	%ecx
	rep movsl	
# SLABEL ("L528") / 

L528:

# LD (Global ("parse")) / 

	movl	global_parse,	%ebx
# CLOSURE ("Llambda_60_76", [Access (0)]) / 

	pushl	%ebx
	pushl	4(%edx)
	pushl	$Llambda_60_76
	pushl	$3
	call	Bclosure
	addl	$12,	%esp
	movl	%eax,	%ecx
	popl	%ebx
	movl	4(%ebp),	%edx
# CALL ("Li__Infix_64", 2, true) / 

	pushl	%edx
	pushl	%ecx
	pushl	%ebx
	call	Li__Infix_64
	addl	$8,	%esp
	popl	%edx
	movl	%eax,	%ebx
# LABEL ("L530") / 

L530:

# SLABEL ("L529") / 

L529:

# END / 

	movl	%ebx,	%eax
LLlambda_59_75_epilogue:

	movl	%ebp,	%esp
	popl	%ebp
	popl	%edx
	.cfi_restore	5

	.cfi_def_cfa	4, 4

	ret
	.cfi_endproc

	.set	LLlambda_59_75_SIZE,	0

	.set	LSLlambda_59_75_SIZE,	0

	.size Llambda_59_75, .-Llambda_59_75

# LABEL ("Llambda_60_76") / 

Llambda_60_76:

# BEGIN ("Llambda_60_76", 1, 0, [Access (0)], ["x2"], [{ blab="L533"; elab="L534"; names=[]; subs=[{ blab="L536"; elab="L537"; names=[]; subs=[]; }]; }]) / 

	.type lambda_60_76, @function

	.stabs "lambda_60_76:F1",36,0,0,Llambda_60_76

	.stabs "x2:p1",160,0,0,8

	.cfi_startproc

	pushl	%edx
	pushl	%ebp
	.cfi_def_cfa_offset	12

	.cfi_offset 5, -12

	movl	%esp,	%ebp
	.cfi_def_cfa_register	5

	subl	$LLlambda_60_76_SIZE,	%esp
	movl	%esp,	%edi
	movl	$filler,	%esi
	movl	$LSLlambda_60_76_SIZE,	%ecx
	rep movsl	
# SLABEL ("L533") / 

L533:

# SLABEL ("L536") / 

L536:

# LD (Access (0)) / 

	movl	4(%edx),	%ebx
# LD (Arg (0)) / 

	movl	12(%ebp),	%ecx
# SEXP ("Seq", 2) / 

	movl	$369315,	%esi
	pushl	%edx
	pushl	%esi
	pushl	%ecx
	pushl	%ebx
	pushl	$7
	call	Bsexp
	addl	$16,	%esp
	popl	%edx
	movl	%eax,	%ebx
# SLABEL ("L537") / 

L537:

# LABEL ("L535") / 

L535:

# SLABEL ("L534") / 

L534:

# END / 

	movl	%ebx,	%eax
LLlambda_60_76_epilogue:

	movl	%ebp,	%esp
	popl	%ebp
	popl	%edx
	.cfi_restore	5

	.cfi_def_cfa	4, 4

	ret
	.cfi_endproc

	.set	LLlambda_60_76_SIZE,	0

	.set	LSLlambda_60_76_SIZE,	0

	.size Llambda_60_76, .-Llambda_60_76

# LABEL ("Llambda_30_42") / 

Llambda_30_42:

# BEGIN ("Llambda_30_42", 1, 0, [], ["__tmp135"], [{ blab="L540"; elab="L541"; names=[]; subs=[]; }]) / 

	.type lambda_30_42, @function

	.stabs "lambda_30_42:F1",36,0,0,Llambda_30_42

	.stabs "__tmp135:p1",160,0,0,8

	.cfi_startproc

	pushl	%ebp
	.cfi_def_cfa_offset	8

	.cfi_offset 5, -8

	movl	%esp,	%ebp
	.cfi_def_cfa_register	5

	subl	$LLlambda_30_42_SIZE,	%esp
	movl	%esp,	%edi
	movl	$filler,	%esi
	movl	$LSLlambda_30_42_SIZE,	%ecx
	rep movsl	
# SLABEL ("L540") / 

L540:

# LINE (72) / 

	.stabn 68,0,72,0

	.stabn 68,0,72,.L48-Llambda_30_42

.L48:

# LD (Global ("stmt")) / 

	movl	global_stmt,	%ebx
# CLOSURE ("Llambda_61_79", []) / 

	pushl	%ebx
	pushl	$Llambda_61_79
	pushl	$1
	call	Bclosure
	addl	$8,	%esp
	movl	%eax,	%ecx
	popl	%ebx
# CALL ("Lseq", 2, false) / 

	pushl	%ecx
	pushl	%ebx
	call	Lseq
	addl	$8,	%esp
	movl	%eax,	%ebx
# LD (Global ("stmt")) / 

	movl	global_stmt,	%ecx
# CLOSURE ("Llambda_62_79", []) / 

	pushl	%ebx
	pushl	%ecx
	pushl	$Llambda_62_79
	pushl	$1
	call	Bclosure
	addl	$8,	%esp
	movl	%eax,	%esi
	popl	%ecx
	popl	%ebx
# CALL ("Li__Infix_64", 2, false) / 

	pushl	%ebx
	pushl	%esi
	pushl	%ecx
	call	Li__Infix_64
	addl	$8,	%esp
	popl	%ebx
	movl	%eax,	%ecx
# CALL ("Lalt", 2, false) / 

	pushl	%ecx
	pushl	%ebx
	call	Lalt
	addl	$8,	%esp
	movl	%eax,	%ebx
# CLOSURE ("Llambda_63_79", []) / 

	pushl	%ebx
	pushl	$Llambda_63_79
	pushl	$1
	call	Bclosure
	addl	$8,	%esp
	movl	%eax,	%ecx
	popl	%ebx
# CALL ("Lseq", 2, true) / 

	pushl	%ecx
	pushl	%ebx
	call	Lseq
	addl	$8,	%esp
	movl	%eax,	%ebx
# LABEL ("L542") / 

L542:

# SLABEL ("L541") / 

L541:

# END / 

	movl	%ebx,	%eax
LLlambda_30_42_epilogue:

	movl	%ebp,	%esp
	popl	%ebp
	.cfi_restore	5

	.cfi_def_cfa	4, 4

	ret
	.cfi_endproc

	.set	LLlambda_30_42_SIZE,	0

	.set	LSLlambda_30_42_SIZE,	0

	.size Llambda_30_42, .-Llambda_30_42

# LABEL ("Llambda_63_79") / 

Llambda_63_79:

# BEGIN ("Llambda_63_79", 1, 0, [], ["f"], [{ blab="L551"; elab="L552"; names=[]; subs=[]; }]) / 

	.type lambda_63_79, @function

	.stabs "lambda_63_79:F1",36,0,0,Llambda_63_79

	.stabs "f:p1",160,0,0,8

	.cfi_startproc

	pushl	%ebp
	.cfi_def_cfa_offset	8

	.cfi_offset 5, -8

	movl	%esp,	%ebp
	.cfi_def_cfa_register	5

	subl	$LLlambda_63_79_SIZE,	%esp
	movl	%esp,	%edi
	movl	$filler,	%esi
	movl	$LSLlambda_63_79_SIZE,	%ecx
	rep movsl	
# SLABEL ("L551") / 

L551:

# LD (Global ("kWhile")) / 

	movl	global_kWhile,	%ebx
# CLOSURE ("Llambda_64_80", [Arg (0)]) / 

	pushl	%ebx
	pushl	8(%ebp)
	pushl	$Llambda_64_80
	pushl	$3
	call	Bclosure
	addl	$12,	%esp
	movl	%eax,	%ecx
	popl	%ebx
# CALL ("Lseq", 2, true) / 

	pushl	%ecx
	pushl	%ebx
	call	Lseq
	addl	$8,	%esp
	movl	%eax,	%ebx
# LABEL ("L553") / 

L553:

# SLABEL ("L552") / 

L552:

# END / 

	movl	%ebx,	%eax
LLlambda_63_79_epilogue:

	movl	%ebp,	%esp
	popl	%ebp
	.cfi_restore	5

	.cfi_def_cfa	4, 4

	ret
	.cfi_endproc

	.set	LLlambda_63_79_SIZE,	0

	.set	LSLlambda_63_79_SIZE,	0

	.size Llambda_63_79, .-Llambda_63_79

# LABEL ("Llambda_64_80") / 

Llambda_64_80:

# BEGIN ("Llambda_64_80", 1, 0, [Arg (0)], ["__tmp134"], [{ blab="L556"; elab="L557"; names=[]; subs=[]; }]) / 

	.type lambda_64_80, @function

	.stabs "lambda_64_80:F1",36,0,0,Llambda_64_80

	.stabs "__tmp134:p1",160,0,0,8

	.cfi_startproc

	pushl	%edx
	pushl	%ebp
	.cfi_def_cfa_offset	12

	.cfi_offset 5, -12

	movl	%esp,	%ebp
	.cfi_def_cfa_register	5

	subl	$LLlambda_64_80_SIZE,	%esp
	movl	%esp,	%edi
	movl	$filler,	%esi
	movl	$LSLlambda_64_80_SIZE,	%ecx
	rep movsl	
# SLABEL ("L556") / 

L556:

# LD (Global ("exp")) / 

	movl	global_exp,	%ebx
# CLOSURE ("Llambda_65_81", [Access (0)]) / 

	pushl	%ebx
	pushl	4(%edx)
	pushl	$Llambda_65_81
	pushl	$3
	call	Bclosure
	addl	$12,	%esp
	movl	%eax,	%ecx
	popl	%ebx
	movl	4(%ebp),	%edx
# CALL ("Lseq", 2, true) / 

	pushl	%edx
	pushl	%ecx
	pushl	%ebx
	call	Lseq
	addl	$8,	%esp
	popl	%edx
	movl	%eax,	%ebx
# LABEL ("L558") / 

L558:

# SLABEL ("L557") / 

L557:

# END / 

	movl	%ebx,	%eax
LLlambda_64_80_epilogue:

	movl	%ebp,	%esp
	popl	%ebp
	popl	%edx
	.cfi_restore	5

	.cfi_def_cfa	4, 4

	ret
	.cfi_endproc

	.set	LLlambda_64_80_SIZE,	0

	.set	LSLlambda_64_80_SIZE,	0

	.size Llambda_64_80, .-Llambda_64_80

# LABEL ("Llambda_65_81") / 

Llambda_65_81:

# BEGIN ("Llambda_65_81", 1, 0, [Access (0)], ["c"], [{ blab="L561"; elab="L562"; names=[]; subs=[]; }]) / 

	.type lambda_65_81, @function

	.stabs "lambda_65_81:F1",36,0,0,Llambda_65_81

	.stabs "c:p1",160,0,0,8

	.cfi_startproc

	pushl	%edx
	pushl	%ebp
	.cfi_def_cfa_offset	12

	.cfi_offset 5, -12

	movl	%esp,	%ebp
	.cfi_def_cfa_register	5

	subl	$LLlambda_65_81_SIZE,	%esp
	movl	%esp,	%edi
	movl	$filler,	%esi
	movl	$LSLlambda_65_81_SIZE,	%ecx
	rep movsl	
# SLABEL ("L561") / 

L561:

# LD (Global ("kOd")) / 

	movl	global_kOd,	%ebx
# CLOSURE ("Llambda_66_82", [Access (0); Arg (0)]) / 

	pushl	%ebx
	pushl	12(%ebp)
	pushl	4(%edx)
	pushl	$Llambda_66_82
	pushl	$5
	call	Bclosure
	addl	$16,	%esp
	movl	%eax,	%ecx
	popl	%ebx
	movl	4(%ebp),	%edx
# CALL ("Li__Infix_64", 2, true) / 

	pushl	%edx
	pushl	%ecx
	pushl	%ebx
	call	Li__Infix_64
	addl	$8,	%esp
	popl	%edx
	movl	%eax,	%ebx
# LABEL ("L563") / 

L563:

# SLABEL ("L562") / 

L562:

# END / 

	movl	%ebx,	%eax
LLlambda_65_81_epilogue:

	movl	%ebp,	%esp
	popl	%ebp
	popl	%edx
	.cfi_restore	5

	.cfi_def_cfa	4, 4

	ret
	.cfi_endproc

	.set	LLlambda_65_81_SIZE,	0

	.set	LSLlambda_65_81_SIZE,	0

	.size Llambda_65_81, .-Llambda_65_81

# LABEL ("Llambda_66_82") / 

Llambda_66_82:

# BEGIN ("Llambda_66_82", 1, 0, [Access (0); Arg (0)], ["__tmp133"], [{ blab="L566"; elab="L567"; names=[]; subs=[{ blab="L569"; elab="L570"; names=[]; subs=[]; }]; }]) / 

	.type lambda_66_82, @function

	.stabs "lambda_66_82:F1",36,0,0,Llambda_66_82

	.stabs "__tmp133:p1",160,0,0,8

	.cfi_startproc

	pushl	%edx
	pushl	%ebp
	.cfi_def_cfa_offset	12

	.cfi_offset 5, -12

	movl	%esp,	%ebp
	.cfi_def_cfa_register	5

	subl	$LLlambda_66_82_SIZE,	%esp
	movl	%esp,	%edi
	movl	$filler,	%esi
	movl	$LSLlambda_66_82_SIZE,	%ecx
	rep movsl	
# SLABEL ("L566") / 

L566:

# SLABEL ("L569") / 

L569:

# LD (Access (0)) / 

	movl	4(%edx),	%ebx
# LD (Access (1)) / 

	movl	8(%edx),	%ecx
# SEXP ("DoWhile", 2) / 

	movl	$1014899731,	%esi
	pushl	%edx
	pushl	%esi
	pushl	%ecx
	pushl	%ebx
	pushl	$7
	call	Bsexp
	addl	$16,	%esp
	popl	%edx
	movl	%eax,	%ebx
# SLABEL ("L570") / 

L570:

# LABEL ("L568") / 

L568:

# SLABEL ("L567") / 

L567:

# END / 

	movl	%ebx,	%eax
LLlambda_66_82_epilogue:

	movl	%ebp,	%esp
	popl	%ebp
	popl	%edx
	.cfi_restore	5

	.cfi_def_cfa	4, 4

	ret
	.cfi_endproc

	.set	LLlambda_66_82_SIZE,	0

	.set	LSLlambda_66_82_SIZE,	0

	.size Llambda_66_82, .-Llambda_66_82

# LABEL ("Llambda_62_79") / 

Llambda_62_79:

# BEGIN ("Llambda_62_79", 1, 0, [], ["__tmp121"], [{ blab="L573"; elab="L574"; names=[]; subs=[]; }]) / 

	.type lambda_62_79, @function

	.stabs "lambda_62_79:F1",36,0,0,Llambda_62_79

	.stabs "__tmp121:p1",160,0,0,8

	.cfi_startproc

	pushl	%ebp
	.cfi_def_cfa_offset	8

	.cfi_offset 5, -8

	movl	%esp,	%ebp
	.cfi_def_cfa_register	5

	subl	$LLlambda_62_79_SIZE,	%esp
	movl	%esp,	%edi
	movl	$filler,	%esi
	movl	$LSLlambda_62_79_SIZE,	%ecx
	rep movsl	
# SLABEL ("L573") / 

L573:

# LD (Arg (0)) / 

	movl	8(%ebp),	%ebx
# LABEL ("L575") / 

L575:

# SLABEL ("L574") / 

L574:

# END / 

	movl	%ebx,	%eax
LLlambda_62_79_epilogue:

	movl	%ebp,	%esp
	popl	%ebp
	.cfi_restore	5

	.cfi_def_cfa	4, 4

	ret
	.cfi_endproc

	.set	LLlambda_62_79_SIZE,	0

	.set	LSLlambda_62_79_SIZE,	0

	.size Llambda_62_79, .-Llambda_62_79

# LABEL ("Llambda_61_79") / 

Llambda_61_79:

# BEGIN ("Llambda_61_79", 1, 0, [], ["x1"], [{ blab="L576"; elab="L577"; names=[]; subs=[]; }]) / 

	.type lambda_61_79, @function

	.stabs "lambda_61_79:F1",36,0,0,Llambda_61_79

	.stabs "x1:p1",160,0,0,8

	.cfi_startproc

	pushl	%ebp
	.cfi_def_cfa_offset	8

	.cfi_offset 5, -8

	movl	%esp,	%ebp
	.cfi_def_cfa_register	5

	subl	$LLlambda_61_79_SIZE,	%esp
	movl	%esp,	%edi
	movl	$filler,	%esi
	movl	$LSLlambda_61_79_SIZE,	%ecx
	rep movsl	
# SLABEL ("L576") / 

L576:

# STRING (";") / 

	movl	$string_13,	%ebx
	pushl	%ebx
	call	Bstring
	addl	$4,	%esp
	movl	%eax,	%ebx
# CALL ("Ls", 1, false) / 

	pushl	%ebx
	call	Ls
	addl	$4,	%esp
	movl	%eax,	%ebx
# CLOSURE ("Llambda_67_86", [Arg (0)]) / 

	pushl	%ebx
	pushl	8(%ebp)
	pushl	$Llambda_67_86
	pushl	$3
	call	Bclosure
	addl	$12,	%esp
	movl	%eax,	%ecx
	popl	%ebx
# CALL ("Lseq", 2, true) / 

	pushl	%ecx
	pushl	%ebx
	call	Lseq
	addl	$8,	%esp
	movl	%eax,	%ebx
# LABEL ("L578") / 

L578:

# SLABEL ("L577") / 

L577:

# END / 

	movl	%ebx,	%eax
LLlambda_61_79_epilogue:

	movl	%ebp,	%esp
	popl	%ebp
	.cfi_restore	5

	.cfi_def_cfa	4, 4

	ret
	.cfi_endproc

	.set	LLlambda_61_79_SIZE,	0

	.set	LSLlambda_61_79_SIZE,	0

	.size Llambda_61_79, .-Llambda_61_79

# LABEL ("Llambda_67_86") / 

Llambda_67_86:

# BEGIN ("Llambda_67_86", 1, 0, [Arg (0)], ["__tmp120"], [{ blab="L582"; elab="L583"; names=[]; subs=[]; }]) / 

	.type lambda_67_86, @function

	.stabs "lambda_67_86:F1",36,0,0,Llambda_67_86

	.stabs "__tmp120:p1",160,0,0,8

	.cfi_startproc

	pushl	%edx
	pushl	%ebp
	.cfi_def_cfa_offset	12

	.cfi_offset 5, -12

	movl	%esp,	%ebp
	.cfi_def_cfa_register	5

	subl	$LLlambda_67_86_SIZE,	%esp
	movl	%esp,	%edi
	movl	$filler,	%esi
	movl	$LSLlambda_67_86_SIZE,	%ecx
	rep movsl	
# SLABEL ("L582") / 

L582:

# LD (Global ("parse")) / 

	movl	global_parse,	%ebx
# CLOSURE ("Llambda_68_87", [Access (0)]) / 

	pushl	%ebx
	pushl	4(%edx)
	pushl	$Llambda_68_87
	pushl	$3
	call	Bclosure
	addl	$12,	%esp
	movl	%eax,	%ecx
	popl	%ebx
	movl	4(%ebp),	%edx
# CALL ("Li__Infix_64", 2, true) / 

	pushl	%edx
	pushl	%ecx
	pushl	%ebx
	call	Li__Infix_64
	addl	$8,	%esp
	popl	%edx
	movl	%eax,	%ebx
# LABEL ("L584") / 

L584:

# SLABEL ("L583") / 

L583:

# END / 

	movl	%ebx,	%eax
LLlambda_67_86_epilogue:

	movl	%ebp,	%esp
	popl	%ebp
	popl	%edx
	.cfi_restore	5

	.cfi_def_cfa	4, 4

	ret
	.cfi_endproc

	.set	LLlambda_67_86_SIZE,	0

	.set	LSLlambda_67_86_SIZE,	0

	.size Llambda_67_86, .-Llambda_67_86

# LABEL ("Llambda_68_87") / 

Llambda_68_87:

# BEGIN ("Llambda_68_87", 1, 0, [Access (0)], ["x2"], [{ blab="L587"; elab="L588"; names=[]; subs=[{ blab="L590"; elab="L591"; names=[]; subs=[]; }]; }]) / 

	.type lambda_68_87, @function

	.stabs "lambda_68_87:F1",36,0,0,Llambda_68_87

	.stabs "x2:p1",160,0,0,8

	.cfi_startproc

	pushl	%edx
	pushl	%ebp
	.cfi_def_cfa_offset	12

	.cfi_offset 5, -12

	movl	%esp,	%ebp
	.cfi_def_cfa_register	5

	subl	$LLlambda_68_87_SIZE,	%esp
	movl	%esp,	%edi
	movl	$filler,	%esi
	movl	$LSLlambda_68_87_SIZE,	%ecx
	rep movsl	
# SLABEL ("L587") / 

L587:

# SLABEL ("L590") / 

L590:

# LD (Access (0)) / 

	movl	4(%edx),	%ebx
# LD (Arg (0)) / 

	movl	12(%ebp),	%ecx
# SEXP ("Seq", 2) / 

	movl	$369315,	%esi
	pushl	%edx
	pushl	%esi
	pushl	%ecx
	pushl	%ebx
	pushl	$7
	call	Bsexp
	addl	$16,	%esp
	popl	%edx
	movl	%eax,	%ebx
# SLABEL ("L591") / 

L591:

# LABEL ("L589") / 

L589:

# SLABEL ("L588") / 

L588:

# END / 

	movl	%ebx,	%eax
LLlambda_68_87_epilogue:

	movl	%ebp,	%esp
	popl	%ebp
	popl	%edx
	.cfi_restore	5

	.cfi_def_cfa	4, 4

	ret
	.cfi_endproc

	.set	LLlambda_68_87_SIZE,	0

	.set	LSLlambda_68_87_SIZE,	0

	.size Llambda_68_87, .-Llambda_68_87

# LABEL ("LbuildSeqForWhile") / 

LbuildSeqForWhile:

# BEGIN ("LbuildSeqForWhile", 3, 0, [], ["x"; "y"; "seqstmt"], [{ blab="L594"; elab="L595"; names=[]; subs=[{ blab="L597"; elab="L598"; names=[]; subs=[]; }]; }]) / 

	.type buildSeqForWhile, @function

	.stabs "buildSeqForWhile:F1",36,0,0,LbuildSeqForWhile

	.stabs "x:p1",160,0,0,8

	.stabs "y:p1",160,0,0,12

	.stabs "seqstmt:p1",160,0,0,16

	.cfi_startproc

	pushl	%ebp
	.cfi_def_cfa_offset	8

	.cfi_offset 5, -8

	movl	%esp,	%ebp
	.cfi_def_cfa_register	5

	subl	$LLbuildSeqForWhile_SIZE,	%esp
	movl	%esp,	%edi
	movl	$filler,	%esi
	movl	$LSLbuildSeqForWhile_SIZE,	%ecx
	rep movsl	
# SLABEL ("L594") / 

L594:

# SLABEL ("L597") / 

L597:

# LINE (67) / 

	.stabn 68,0,67,0

	.stabn 68,0,67,.L49-LbuildSeqForWhile

.L49:

# LD (Arg (0)) / 

	movl	8(%ebp),	%ebx
# LD (Arg (1)) / 

	movl	12(%ebp),	%ecx
# LD (Arg (2)) / 

	movl	16(%ebp),	%esi
# SEXP ("While", 2) / 

	movl	$1648436747,	%edi
	pushl	%ebx
	pushl	%edi
	pushl	%esi
	pushl	%ecx
	pushl	$7
	call	Bsexp
	addl	$16,	%esp
	popl	%ebx
	movl	%eax,	%ecx
# SEXP ("Seq", 2) / 

	movl	$369315,	%esi
	pushl	%esi
	pushl	%ecx
	pushl	%ebx
	pushl	$7
	call	Bsexp
	addl	$16,	%esp
	movl	%eax,	%ebx
# SLABEL ("L598") / 

L598:

# LABEL ("L596") / 

L596:

# SLABEL ("L595") / 

L595:

# END / 

	movl	%ebx,	%eax
LLbuildSeqForWhile_epilogue:

	movl	%ebp,	%esp
	popl	%ebp
	.cfi_restore	5

	.cfi_def_cfa	4, 4

	ret
	.cfi_endproc

	.set	LLbuildSeqForWhile_SIZE,	0

	.set	LSLbuildSeqForWhile_SIZE,	0

	.size LbuildSeqForWhile, .-LbuildSeqForWhile

# LABEL ("LfuncIf") / 

LfuncIf:

# BEGIN ("LfuncIf", 0, 2, [], [], [{ blab="L603"; elab="L604"; names=[]; subs=[{ blab="L606"; elab="L607"; names=[("elseIf", 1); ("elseFun", 0)]; subs=[]; }]; }]) / 

	.type funcIf, @function

	.stabs "funcIf:F1",36,0,0,LfuncIf

	.stabs "elseIf:1",128,0,0,-8

	.stabs "elseFun:1",128,0,0,-4

	.stabn 192,0,0,L606-LfuncIf

	.stabn 224,0,0,L607-LfuncIf

	.cfi_startproc

	pushl	%ebp
	.cfi_def_cfa_offset	8

	.cfi_offset 5, -8

	movl	%esp,	%ebp
	.cfi_def_cfa_register	5

	subl	$LLfuncIf_SIZE,	%esp
	movl	%esp,	%edi
	movl	$filler,	%esi
	movl	$LSLfuncIf_SIZE,	%ecx
	rep movsl	
# SLABEL ("L603") / 

L603:

# SLABEL ("L606") / 

L606:

# CALL ("LelseIfFunc", 0, false) / 

	call	LelseIfFunc
	addl	$0,	%esp
	movl	%eax,	%ebx
# LINE (58) / 

	.stabn 68,0,58,0

	.stabn 68,0,58,.L50-LfuncIf

.L50:

# ST (Local (1)) / 

	movl	%ebx,	-8(%ebp)
# DROP / 

# CALL ("LelseFunc", 0, false) / 

	call	LelseFunc
	addl	$0,	%esp
	movl	%eax,	%ebx
# LINE (59) / 

	.stabn 68,0,59,.L51-LfuncIf

.L51:

# ST (Local (0)) / 

	movl	%ebx,	-4(%ebp)
# DROP / 

# CLOSURE ("Lmemo", []) / 

	pushl	$Lmemo
	pushl	$1
	call	Bclosure
	addl	$8,	%esp
	movl	%eax,	%ebx
# CLOSURE ("Llambda_69_93", [Local (0); Local (1)]) / 

	pushl	%ebx
	pushl	-8(%ebp)
	pushl	-4(%ebp)
	pushl	$Llambda_69_93
	pushl	$5
	call	Bclosure
	addl	$16,	%esp
	movl	%eax,	%ecx
	popl	%ebx
# CALL ("Li__Infix_36", 2, true) / 

	pushl	%ecx
	pushl	%ebx
	call	Li__Infix_36
	addl	$8,	%esp
	movl	%eax,	%ebx
# SLABEL ("L607") / 

L607:

# LABEL ("L605") / 

L605:

# SLABEL ("L604") / 

L604:

# END / 

	movl	%ebx,	%eax
LLfuncIf_epilogue:

	movl	%ebp,	%esp
	popl	%ebp
	.cfi_restore	5

	.cfi_def_cfa	4, 4

	ret
	.cfi_endproc

	.set	LLfuncIf_SIZE,	8

	.set	LSLfuncIf_SIZE,	2

	.size LfuncIf, .-LfuncIf

# LABEL ("Llambda_69_93") / 

Llambda_69_93:

# BEGIN ("Llambda_69_93", 1, 0, [Local (0); Local (1)], ["__tmp110"], [{ blab="L618"; elab="L619"; names=[]; subs=[]; }]) / 

	.type lambda_69_93, @function

	.stabs "lambda_69_93:F1",36,0,0,Llambda_69_93

	.stabs "__tmp110:p1",160,0,0,8

	.cfi_startproc

	pushl	%edx
	pushl	%ebp
	.cfi_def_cfa_offset	12

	.cfi_offset 5, -12

	movl	%esp,	%ebp
	.cfi_def_cfa_register	5

	subl	$LLlambda_69_93_SIZE,	%esp
	movl	%esp,	%edi
	movl	$filler,	%esi
	movl	$LSLlambda_69_93_SIZE,	%ecx
	rep movsl	
# SLABEL ("L618") / 

L618:

# LINE (60) / 

	.stabn 68,0,60,0

	.stabn 68,0,60,.L52-Llambda_69_93

.L52:

# LD (Access (0)) / 

	movl	4(%edx),	%ebx
# CLOSURE ("Llambda_70_94", []) / 

	pushl	%ebx
	pushl	$Llambda_70_94
	pushl	$1
	call	Bclosure
	addl	$8,	%esp
	movl	%eax,	%ecx
	popl	%ebx
	movl	4(%ebp),	%edx
# CALL ("Li__Infix_64", 2, false) / 

	pushl	%edx
	pushl	%ecx
	pushl	%ebx
	call	Li__Infix_64
	addl	$8,	%esp
	popl	%edx
	movl	%eax,	%ebx
# LD (Global ("kFi")) / 

	movl	global_kFi,	%ecx
# CLOSURE ("Llambda_71_94", []) / 

	pushl	%ebx
	pushl	%ecx
	pushl	$Llambda_71_94
	pushl	$1
	call	Bclosure
	addl	$8,	%esp
	movl	%eax,	%esi
	popl	%ecx
	popl	%ebx
	movl	4(%ebp),	%edx
# CALL ("Li__Infix_64", 2, false) / 

	pushl	%edx
	pushl	%ebx
	pushl	%esi
	pushl	%ecx
	call	Li__Infix_64
	addl	$8,	%esp
	popl	%ebx
	popl	%edx
	movl	%eax,	%ecx
# LINE (61) / 

	.stabn 68,0,61,.L53-Llambda_69_93

.L53:

# LD (Access (1)) / 

	movl	8(%edx),	%esi
# CLOSURE ("Llambda_72_94", []) / 

	pushl	%ebx
	pushl	%ecx
	pushl	%esi
	pushl	$Llambda_72_94
	pushl	$1
	call	Bclosure
	addl	$8,	%esp
	movl	%eax,	%edi
	popl	%esi
	popl	%ecx
	popl	%ebx
	movl	4(%ebp),	%edx
# CALL ("Li__Infix_64", 2, false) / 

	pushl	%edx
	pushl	%ebx
	pushl	%ecx
	pushl	%edi
	pushl	%esi
	call	Li__Infix_64
	addl	$8,	%esp
	popl	%ecx
	popl	%ebx
	popl	%edx
	movl	%eax,	%esi
# CALL ("Lalt", 2, false) / 

	pushl	%edx
	pushl	%ebx
	pushl	%esi
	pushl	%ecx
	call	Lalt
	addl	$8,	%esp
	popl	%ebx
	popl	%edx
	movl	%eax,	%ecx
# CALL ("Lalt", 2, false) / 

	pushl	%edx
	pushl	%ecx
	pushl	%ebx
	call	Lalt
	addl	$8,	%esp
	popl	%edx
	movl	%eax,	%ebx
# LD (Arg (0)) / 

	movl	12(%ebp),	%ecx
# CALLC (1, true) / 

	movl	%ecx,	12(%ebp)
	movl	%ebx,	%edx
	movl	(%edx),	%eax
	movl	%ebp,	%esp
	popl	%ebp
	popl	%ebx
	jmp	*%eax
# LABEL ("L620") / 

L620:

# SLABEL ("L619") / 

L619:

# END / 

	movl	%ebx,	%eax
LLlambda_69_93_epilogue:

	movl	%ebp,	%esp
	popl	%ebp
	popl	%edx
	.cfi_restore	5

	.cfi_def_cfa	4, 4

	ret
	.cfi_endproc

	.set	LLlambda_69_93_SIZE,	0

	.set	LSLlambda_69_93_SIZE,	0

	.size Llambda_69_93, .-Llambda_69_93

# LABEL ("Llambda_72_94") / 

Llambda_72_94:

# BEGIN ("Llambda_72_94", 1, 0, [], ["__tmp105"], [{ blab="L633"; elab="L634"; names=[]; subs=[]; }]) / 

	.type lambda_72_94, @function

	.stabs "lambda_72_94:F1",36,0,0,Llambda_72_94

	.stabs "__tmp105:p1",160,0,0,8

	.cfi_startproc

	pushl	%ebp
	.cfi_def_cfa_offset	8

	.cfi_offset 5, -8

	movl	%esp,	%ebp
	.cfi_def_cfa_register	5

	subl	$LLlambda_72_94_SIZE,	%esp
	movl	%esp,	%edi
	movl	$filler,	%esi
	movl	$LSLlambda_72_94_SIZE,	%ecx
	rep movsl	
# SLABEL ("L633") / 

L633:

# LD (Arg (0)) / 

	movl	8(%ebp),	%ebx
# LABEL ("L635") / 

L635:

# SLABEL ("L634") / 

L634:

# END / 

	movl	%ebx,	%eax
LLlambda_72_94_epilogue:

	movl	%ebp,	%esp
	popl	%ebp
	.cfi_restore	5

	.cfi_def_cfa	4, 4

	ret
	.cfi_endproc

	.set	LLlambda_72_94_SIZE,	0

	.set	LSLlambda_72_94_SIZE,	0

	.size Llambda_72_94, .-Llambda_72_94

# LABEL ("Llambda_71_94") / 

Llambda_71_94:

# BEGIN ("Llambda_71_94", 1, 0, [], ["__tmp104"], [{ blab="L636"; elab="L637"; names=[]; subs=[{ blab="L639"; elab="L640"; names=[]; subs=[]; }]; }]) / 

	.type lambda_71_94, @function

	.stabs "lambda_71_94:F1",36,0,0,Llambda_71_94

	.stabs "__tmp104:p1",160,0,0,8

	.cfi_startproc

	pushl	%ebp
	.cfi_def_cfa_offset	8

	.cfi_offset 5, -8

	movl	%esp,	%ebp
	.cfi_def_cfa_register	5

	subl	$LLlambda_71_94_SIZE,	%esp
	movl	%esp,	%edi
	movl	$filler,	%esi
	movl	$LSLlambda_71_94_SIZE,	%ecx
	rep movsl	
# SLABEL ("L636") / 

L636:

# SLABEL ("L639") / 

L639:

# SEXP ("Skip", 0) / 

	movl	$23684257,	%ebx
	pushl	%ebx
	pushl	$3
	call	Bsexp
	addl	$8,	%esp
	movl	%eax,	%ebx
# SLABEL ("L640") / 

L640:

# LABEL ("L638") / 

L638:

# SLABEL ("L637") / 

L637:

# END / 

	movl	%ebx,	%eax
LLlambda_71_94_epilogue:

	movl	%ebp,	%esp
	popl	%ebp
	.cfi_restore	5

	.cfi_def_cfa	4, 4

	ret
	.cfi_endproc

	.set	LLlambda_71_94_SIZE,	0

	.set	LSLlambda_71_94_SIZE,	0

	.size Llambda_71_94, .-Llambda_71_94

# LABEL ("Llambda_70_94") / 

Llambda_70_94:

# BEGIN ("Llambda_70_94", 1, 0, [], ["__tmp102"], [{ blab="L642"; elab="L643"; names=[]; subs=[]; }]) / 

	.type lambda_70_94, @function

	.stabs "lambda_70_94:F1",36,0,0,Llambda_70_94

	.stabs "__tmp102:p1",160,0,0,8

	.cfi_startproc

	pushl	%ebp
	.cfi_def_cfa_offset	8

	.cfi_offset 5, -8

	movl	%esp,	%ebp
	.cfi_def_cfa_register	5

	subl	$LLlambda_70_94_SIZE,	%esp
	movl	%esp,	%edi
	movl	$filler,	%esi
	movl	$LSLlambda_70_94_SIZE,	%ecx
	rep movsl	
# SLABEL ("L642") / 

L642:

# LD (Arg (0)) / 

	movl	8(%ebp),	%ebx
# LABEL ("L644") / 

L644:

# SLABEL ("L643") / 

L643:

# END / 

	movl	%ebx,	%eax
LLlambda_70_94_epilogue:

	movl	%ebp,	%esp
	popl	%ebp
	.cfi_restore	5

	.cfi_def_cfa	4, 4

	ret
	.cfi_endproc

	.set	LLlambda_70_94_SIZE,	0

	.set	LSLlambda_70_94_SIZE,	0

	.size Llambda_70_94, .-Llambda_70_94

# LABEL ("LelseIfFunc") / 

LelseIfFunc:

# BEGIN ("LelseIfFunc", 0, 0, [], [], [{ blab="L645"; elab="L646"; names=[]; subs=[{ blab="L648"; elab="L649"; names=[]; subs=[]; }]; }]) / 

	.type elseIfFunc, @function

	.stabs "elseIfFunc:F1",36,0,0,LelseIfFunc

	.cfi_startproc

	pushl	%ebp
	.cfi_def_cfa_offset	8

	.cfi_offset 5, -8

	movl	%esp,	%ebp
	.cfi_def_cfa_register	5

	subl	$LLelseIfFunc_SIZE,	%esp
	movl	%esp,	%edi
	movl	$filler,	%esi
	movl	$LSLelseIfFunc_SIZE,	%ecx
	rep movsl	
# SLABEL ("L645") / 

L645:

# SLABEL ("L648") / 

L648:

# LINE (53) / 

	.stabn 68,0,53,0

	.stabn 68,0,53,.L54-LelseIfFunc

.L54:

# CLOSURE ("Lmemo", []) / 

	pushl	$Lmemo
	pushl	$1
	call	Bclosure
	addl	$8,	%esp
	movl	%eax,	%ebx
# CLOSURE ("Llambda_73_100", []) / 

	pushl	%ebx
	pushl	$Llambda_73_100
	pushl	$1
	call	Bclosure
	addl	$8,	%esp
	movl	%eax,	%ecx
	popl	%ebx
# CALL ("Li__Infix_36", 2, true) / 

	pushl	%ecx
	pushl	%ebx
	call	Li__Infix_36
	addl	$8,	%esp
	movl	%eax,	%ebx
# SLABEL ("L649") / 

L649:

# LABEL ("L647") / 

L647:

# SLABEL ("L646") / 

L646:

# END / 

	movl	%ebx,	%eax
LLelseIfFunc_epilogue:

	movl	%ebp,	%esp
	popl	%ebp
	.cfi_restore	5

	.cfi_def_cfa	4, 4

	ret
	.cfi_endproc

	.set	LLelseIfFunc_SIZE,	0

	.set	LSLelseIfFunc_SIZE,	0

	.size LelseIfFunc, .-LelseIfFunc

# LABEL ("Llambda_73_100") / 

Llambda_73_100:

# BEGIN ("Llambda_73_100", 1, 0, [], ["__tmp101"], [{ blab="L652"; elab="L653"; names=[]; subs=[]; }]) / 

	.type lambda_73_100, @function

	.stabs "lambda_73_100:F1",36,0,0,Llambda_73_100

	.stabs "__tmp101:p1",160,0,0,8

	.cfi_startproc

	pushl	%ebp
	.cfi_def_cfa_offset	8

	.cfi_offset 5, -8

	movl	%esp,	%ebp
	.cfi_def_cfa_register	5

	subl	$LLlambda_73_100_SIZE,	%esp
	movl	%esp,	%edi
	movl	$filler,	%esi
	movl	$LSLlambda_73_100_SIZE,	%ecx
	rep movsl	
# SLABEL ("L652") / 

L652:

# LINE (54) / 

	.stabn 68,0,54,0

	.stabn 68,0,54,.L55-Llambda_73_100

.L55:

# LD (Global ("kElif")) / 

	movl	global_kElif,	%ebx
# CLOSURE ("Llambda_74_101", []) / 

	pushl	%ebx
	pushl	$Llambda_74_101
	pushl	$1
	call	Bclosure
	addl	$8,	%esp
	movl	%eax,	%ecx
	popl	%ebx
# CALL ("Lseq", 2, false) / 

	pushl	%ecx
	pushl	%ebx
	call	Lseq
	addl	$8,	%esp
	movl	%eax,	%ebx
# LD (Arg (0)) / 

	movl	8(%ebp),	%ecx
# CALLC (1, true) / 

	movl	%ecx,	8(%ebp)
	movl	%ebx,	%edx
	movl	(%edx),	%eax
	movl	%ebp,	%esp
	popl	%ebp
	jmp	*%eax
# LABEL ("L654") / 

L654:

# SLABEL ("L653") / 

L653:

# END / 

	movl	%ebx,	%eax
LLlambda_73_100_epilogue:

	movl	%ebp,	%esp
	popl	%ebp
	.cfi_restore	5

	.cfi_def_cfa	4, 4

	ret
	.cfi_endproc

	.set	LLlambda_73_100_SIZE,	0

	.set	LSLlambda_73_100_SIZE,	0

	.size Llambda_73_100, .-Llambda_73_100

# LABEL ("Llambda_74_101") / 

Llambda_74_101:

# BEGIN ("Llambda_74_101", 1, 0, [], ["__tmp82"], [{ blab="L659"; elab="L660"; names=[]; subs=[]; }]) / 

	.type lambda_74_101, @function

	.stabs "lambda_74_101:F1",36,0,0,Llambda_74_101

	.stabs "__tmp82:p1",160,0,0,8

	.cfi_startproc

	pushl	%ebp
	.cfi_def_cfa_offset	8

	.cfi_offset 5, -8

	movl	%esp,	%ebp
	.cfi_def_cfa_register	5

	subl	$LLlambda_74_101_SIZE,	%esp
	movl	%esp,	%edi
	movl	$filler,	%esi
	movl	$LSLlambda_74_101_SIZE,	%ecx
	rep movsl	
# SLABEL ("L659") / 

L659:

# LD (Global ("exp")) / 

	movl	global_exp,	%ebx
# CLOSURE ("Llambda_75_102", []) / 

	pushl	%ebx
	pushl	$Llambda_75_102
	pushl	$1
	call	Bclosure
	addl	$8,	%esp
	movl	%eax,	%ecx
	popl	%ebx
# CALL ("Lseq", 2, true) / 

	pushl	%ecx
	pushl	%ebx
	call	Lseq
	addl	$8,	%esp
	movl	%eax,	%ebx
# LABEL ("L661") / 

L661:

# SLABEL ("L660") / 

L660:

# END / 

	movl	%ebx,	%eax
LLlambda_74_101_epilogue:

	movl	%ebp,	%esp
	popl	%ebp
	.cfi_restore	5

	.cfi_def_cfa	4, 4

	ret
	.cfi_endproc

	.set	LLlambda_74_101_SIZE,	0

	.set	LSLlambda_74_101_SIZE,	0

	.size Llambda_74_101, .-Llambda_74_101

# LABEL ("Llambda_75_102") / 

Llambda_75_102:

# BEGIN ("Llambda_75_102", 1, 0, [], ["c"], [{ blab="L664"; elab="L665"; names=[]; subs=[]; }]) / 

	.type lambda_75_102, @function

	.stabs "lambda_75_102:F1",36,0,0,Llambda_75_102

	.stabs "c:p1",160,0,0,8

	.cfi_startproc

	pushl	%ebp
	.cfi_def_cfa_offset	8

	.cfi_offset 5, -8

	movl	%esp,	%ebp
	.cfi_def_cfa_register	5

	subl	$LLlambda_75_102_SIZE,	%esp
	movl	%esp,	%edi
	movl	$filler,	%esi
	movl	$LSLlambda_75_102_SIZE,	%ecx
	rep movsl	
# SLABEL ("L664") / 

L664:

# LD (Global ("kThen")) / 

	movl	global_kThen,	%ebx
# CLOSURE ("Llambda_76_103", [Arg (0)]) / 

	pushl	%ebx
	pushl	8(%ebp)
	pushl	$Llambda_76_103
	pushl	$3
	call	Bclosure
	addl	$12,	%esp
	movl	%eax,	%ecx
	popl	%ebx
# CALL ("Lseq", 2, true) / 

	pushl	%ecx
	pushl	%ebx
	call	Lseq
	addl	$8,	%esp
	movl	%eax,	%ebx
# LABEL ("L666") / 

L666:

# SLABEL ("L665") / 

L665:

# END / 

	movl	%ebx,	%eax
LLlambda_75_102_epilogue:

	movl	%ebp,	%esp
	popl	%ebp
	.cfi_restore	5

	.cfi_def_cfa	4, 4

	ret
	.cfi_endproc

	.set	LLlambda_75_102_SIZE,	0

	.set	LSLlambda_75_102_SIZE,	0

	.size Llambda_75_102, .-Llambda_75_102

# LABEL ("Llambda_76_103") / 

Llambda_76_103:

# BEGIN ("Llambda_76_103", 1, 0, [Arg (0)], ["__tmp81"], [{ blab="L669"; elab="L670"; names=[]; subs=[]; }]) / 

	.type lambda_76_103, @function

	.stabs "lambda_76_103:F1",36,0,0,Llambda_76_103

	.stabs "__tmp81:p1",160,0,0,8

	.cfi_startproc

	pushl	%edx
	pushl	%ebp
	.cfi_def_cfa_offset	12

	.cfi_offset 5, -12

	movl	%esp,	%ebp
	.cfi_def_cfa_register	5

	subl	$LLlambda_76_103_SIZE,	%esp
	movl	%esp,	%edi
	movl	$filler,	%esi
	movl	$LSLlambda_76_103_SIZE,	%ecx
	rep movsl	
# SLABEL ("L669") / 

L669:

# LD (Global ("stmt")) / 

	movl	global_stmt,	%ebx
# CLOSURE ("Llambda_77_104", []) / 

	pushl	%ebx
	pushl	$Llambda_77_104
	pushl	$1
	call	Bclosure
	addl	$8,	%esp
	movl	%eax,	%ecx
	popl	%ebx
	movl	4(%ebp),	%edx
# CALL ("Lseq", 2, false) / 

	pushl	%edx
	pushl	%ecx
	pushl	%ebx
	call	Lseq
	addl	$8,	%esp
	popl	%edx
	movl	%eax,	%ebx
# LD (Global ("stmt")) / 

	movl	global_stmt,	%ecx
# CLOSURE ("Llambda_78_104", []) / 

	pushl	%ebx
	pushl	%ecx
	pushl	$Llambda_78_104
	pushl	$1
	call	Bclosure
	addl	$8,	%esp
	movl	%eax,	%esi
	popl	%ecx
	popl	%ebx
	movl	4(%ebp),	%edx
# CALL ("Li__Infix_64", 2, false) / 

	pushl	%edx
	pushl	%ebx
	pushl	%esi
	pushl	%ecx
	call	Li__Infix_64
	addl	$8,	%esp
	popl	%ebx
	popl	%edx
	movl	%eax,	%ecx
# CALL ("Lalt", 2, false) / 

	pushl	%edx
	pushl	%ecx
	pushl	%ebx
	call	Lalt
	addl	$8,	%esp
	popl	%edx
	movl	%eax,	%ebx
# CLOSURE ("Llambda_79_104", [Access (0)]) / 

	pushl	%ebx
	pushl	4(%edx)
	pushl	$Llambda_79_104
	pushl	$3
	call	Bclosure
	addl	$12,	%esp
	movl	%eax,	%ecx
	popl	%ebx
	movl	4(%ebp),	%edx
# CALL ("Lseq", 2, true) / 

	pushl	%edx
	pushl	%ecx
	pushl	%ebx
	call	Lseq
	addl	$8,	%esp
	popl	%edx
	movl	%eax,	%ebx
# LABEL ("L671") / 

L671:

# SLABEL ("L670") / 

L670:

# END / 

	movl	%ebx,	%eax
LLlambda_76_103_epilogue:

	movl	%ebp,	%esp
	popl	%ebp
	popl	%edx
	.cfi_restore	5

	.cfi_def_cfa	4, 4

	ret
	.cfi_endproc

	.set	LLlambda_76_103_SIZE,	0

	.set	LSLlambda_76_103_SIZE,	0

	.size Llambda_76_103, .-Llambda_76_103

# LABEL ("Llambda_79_104") / 

Llambda_79_104:

# BEGIN ("Llambda_79_104", 1, 0, [Access (0)], ["i"], [{ blab="L680"; elab="L681"; names=[]; subs=[]; }]) / 

	.type lambda_79_104, @function

	.stabs "lambda_79_104:F1",36,0,0,Llambda_79_104

	.stabs "i:p1",160,0,0,8

	.cfi_startproc

	pushl	%edx
	pushl	%ebp
	.cfi_def_cfa_offset	12

	.cfi_offset 5, -12

	movl	%esp,	%ebp
	.cfi_def_cfa_register	5

	subl	$LLlambda_79_104_SIZE,	%esp
	movl	%esp,	%edi
	movl	$filler,	%esi
	movl	$LSLlambda_79_104_SIZE,	%ecx
	rep movsl	
# SLABEL ("L680") / 

L680:

# LD (Global ("exprIf")) / 

	movl	global_exprIf,	%ebx
# CLOSURE ("Llambda_80_105", [Access (0); Arg (0)]) / 

	pushl	%ebx
	pushl	12(%ebp)
	pushl	4(%edx)
	pushl	$Llambda_80_105
	pushl	$5
	call	Bclosure
	addl	$16,	%esp
	movl	%eax,	%ecx
	popl	%ebx
	movl	4(%ebp),	%edx
# CALL ("Li__Infix_64", 2, true) / 

	pushl	%edx
	pushl	%ecx
	pushl	%ebx
	call	Li__Infix_64
	addl	$8,	%esp
	popl	%edx
	movl	%eax,	%ebx
# LABEL ("L682") / 

L682:

# SLABEL ("L681") / 

L681:

# END / 

	movl	%ebx,	%eax
LLlambda_79_104_epilogue:

	movl	%ebp,	%esp
	popl	%ebp
	popl	%edx
	.cfi_restore	5

	.cfi_def_cfa	4, 4

	ret
	.cfi_endproc

	.set	LLlambda_79_104_SIZE,	0

	.set	LSLlambda_79_104_SIZE,	0

	.size Llambda_79_104, .-Llambda_79_104

# LABEL ("Llambda_80_105") / 

Llambda_80_105:

# BEGIN ("Llambda_80_105", 1, 0, [Access (0); Arg (0)], ["e"], [{ blab="L685"; elab="L686"; names=[]; subs=[{ blab="L688"; elab="L689"; names=[]; subs=[]; }]; }]) / 

	.type lambda_80_105, @function

	.stabs "lambda_80_105:F1",36,0,0,Llambda_80_105

	.stabs "e:p1",160,0,0,8

	.cfi_startproc

	pushl	%edx
	pushl	%ebp
	.cfi_def_cfa_offset	12

	.cfi_offset 5, -12

	movl	%esp,	%ebp
	.cfi_def_cfa_register	5

	subl	$LLlambda_80_105_SIZE,	%esp
	movl	%esp,	%edi
	movl	$filler,	%esi
	movl	$LSLlambda_80_105_SIZE,	%ecx
	rep movsl	
# SLABEL ("L685") / 

L685:

# SLABEL ("L688") / 

L688:

# LD (Access (0)) / 

	movl	4(%edx),	%ebx
# LD (Access (1)) / 

	movl	8(%edx),	%ecx
# LD (Arg (0)) / 

	movl	12(%ebp),	%esi
# SEXP ("If", 3) / 

	movl	$4493,	%edi
	pushl	%edx
	pushl	%edi
	pushl	%esi
	pushl	%ecx
	pushl	%ebx
	pushl	$9
	call	Bsexp
	addl	$20,	%esp
	popl	%edx
	movl	%eax,	%ebx
# SLABEL ("L689") / 

L689:

# LABEL ("L687") / 

L687:

# SLABEL ("L686") / 

L686:

# END / 

	movl	%ebx,	%eax
LLlambda_80_105_epilogue:

	movl	%ebp,	%esp
	popl	%ebp
	popl	%edx
	.cfi_restore	5

	.cfi_def_cfa	4, 4

	ret
	.cfi_endproc

	.set	LLlambda_80_105_SIZE,	0

	.set	LSLlambda_80_105_SIZE,	0

	.size Llambda_80_105, .-Llambda_80_105

# LABEL ("Llambda_78_104") / 

Llambda_78_104:

# BEGIN ("Llambda_78_104", 1, 0, [], ["__tmp73"], [{ blab="L693"; elab="L694"; names=[]; subs=[]; }]) / 

	.type lambda_78_104, @function

	.stabs "lambda_78_104:F1",36,0,0,Llambda_78_104

	.stabs "__tmp73:p1",160,0,0,8

	.cfi_startproc

	pushl	%ebp
	.cfi_def_cfa_offset	8

	.cfi_offset 5, -8

	movl	%esp,	%ebp
	.cfi_def_cfa_register	5

	subl	$LLlambda_78_104_SIZE,	%esp
	movl	%esp,	%edi
	movl	$filler,	%esi
	movl	$LSLlambda_78_104_SIZE,	%ecx
	rep movsl	
# SLABEL ("L693") / 

L693:

# LD (Arg (0)) / 

	movl	8(%ebp),	%ebx
# LABEL ("L695") / 

L695:

# SLABEL ("L694") / 

L694:

# END / 

	movl	%ebx,	%eax
LLlambda_78_104_epilogue:

	movl	%ebp,	%esp
	popl	%ebp
	.cfi_restore	5

	.cfi_def_cfa	4, 4

	ret
	.cfi_endproc

	.set	LLlambda_78_104_SIZE,	0

	.set	LSLlambda_78_104_SIZE,	0

	.size Llambda_78_104, .-Llambda_78_104

# LABEL ("Llambda_77_104") / 

Llambda_77_104:

# BEGIN ("Llambda_77_104", 1, 0, [], ["x1"], [{ blab="L696"; elab="L697"; names=[]; subs=[]; }]) / 

	.type lambda_77_104, @function

	.stabs "lambda_77_104:F1",36,0,0,Llambda_77_104

	.stabs "x1:p1",160,0,0,8

	.cfi_startproc

	pushl	%ebp
	.cfi_def_cfa_offset	8

	.cfi_offset 5, -8

	movl	%esp,	%ebp
	.cfi_def_cfa_register	5

	subl	$LLlambda_77_104_SIZE,	%esp
	movl	%esp,	%edi
	movl	$filler,	%esi
	movl	$LSLlambda_77_104_SIZE,	%ecx
	rep movsl	
# SLABEL ("L696") / 

L696:

# STRING (";") / 

	movl	$string_13,	%ebx
	pushl	%ebx
	call	Bstring
	addl	$4,	%esp
	movl	%eax,	%ebx
# CALL ("Ls", 1, false) / 

	pushl	%ebx
	call	Ls
	addl	$4,	%esp
	movl	%eax,	%ebx
# CLOSURE ("Llambda_81_109", [Arg (0)]) / 

	pushl	%ebx
	pushl	8(%ebp)
	pushl	$Llambda_81_109
	pushl	$3
	call	Bclosure
	addl	$12,	%esp
	movl	%eax,	%ecx
	popl	%ebx
# CALL ("Lseq", 2, true) / 

	pushl	%ecx
	pushl	%ebx
	call	Lseq
	addl	$8,	%esp
	movl	%eax,	%ebx
# LABEL ("L698") / 

L698:

# SLABEL ("L697") / 

L697:

# END / 

	movl	%ebx,	%eax
LLlambda_77_104_epilogue:

	movl	%ebp,	%esp
	popl	%ebp
	.cfi_restore	5

	.cfi_def_cfa	4, 4

	ret
	.cfi_endproc

	.set	LLlambda_77_104_SIZE,	0

	.set	LSLlambda_77_104_SIZE,	0

	.size Llambda_77_104, .-Llambda_77_104

# LABEL ("Llambda_81_109") / 

Llambda_81_109:

# BEGIN ("Llambda_81_109", 1, 0, [Arg (0)], ["__tmp72"], [{ blab="L702"; elab="L703"; names=[]; subs=[]; }]) / 

	.type lambda_81_109, @function

	.stabs "lambda_81_109:F1",36,0,0,Llambda_81_109

	.stabs "__tmp72:p1",160,0,0,8

	.cfi_startproc

	pushl	%edx
	pushl	%ebp
	.cfi_def_cfa_offset	12

	.cfi_offset 5, -12

	movl	%esp,	%ebp
	.cfi_def_cfa_register	5

	subl	$LLlambda_81_109_SIZE,	%esp
	movl	%esp,	%edi
	movl	$filler,	%esi
	movl	$LSLlambda_81_109_SIZE,	%ecx
	rep movsl	
# SLABEL ("L702") / 

L702:

# LD (Global ("parse")) / 

	movl	global_parse,	%ebx
# CLOSURE ("Llambda_82_110", [Access (0)]) / 

	pushl	%ebx
	pushl	4(%edx)
	pushl	$Llambda_82_110
	pushl	$3
	call	Bclosure
	addl	$12,	%esp
	movl	%eax,	%ecx
	popl	%ebx
	movl	4(%ebp),	%edx
# CALL ("Li__Infix_64", 2, true) / 

	pushl	%edx
	pushl	%ecx
	pushl	%ebx
	call	Li__Infix_64
	addl	$8,	%esp
	popl	%edx
	movl	%eax,	%ebx
# LABEL ("L704") / 

L704:

# SLABEL ("L703") / 

L703:

# END / 

	movl	%ebx,	%eax
LLlambda_81_109_epilogue:

	movl	%ebp,	%esp
	popl	%ebp
	popl	%edx
	.cfi_restore	5

	.cfi_def_cfa	4, 4

	ret
	.cfi_endproc

	.set	LLlambda_81_109_SIZE,	0

	.set	LSLlambda_81_109_SIZE,	0

	.size Llambda_81_109, .-Llambda_81_109

# LABEL ("Llambda_82_110") / 

Llambda_82_110:

# BEGIN ("Llambda_82_110", 1, 0, [Access (0)], ["x2"], [{ blab="L707"; elab="L708"; names=[]; subs=[{ blab="L710"; elab="L711"; names=[]; subs=[]; }]; }]) / 

	.type lambda_82_110, @function

	.stabs "lambda_82_110:F1",36,0,0,Llambda_82_110

	.stabs "x2:p1",160,0,0,8

	.cfi_startproc

	pushl	%edx
	pushl	%ebp
	.cfi_def_cfa_offset	12

	.cfi_offset 5, -12

	movl	%esp,	%ebp
	.cfi_def_cfa_register	5

	subl	$LLlambda_82_110_SIZE,	%esp
	movl	%esp,	%edi
	movl	$filler,	%esi
	movl	$LSLlambda_82_110_SIZE,	%ecx
	rep movsl	
# SLABEL ("L707") / 

L707:

# SLABEL ("L710") / 

L710:

# LD (Access (0)) / 

	movl	4(%edx),	%ebx
# LD (Arg (0)) / 

	movl	12(%ebp),	%ecx
# SEXP ("Seq", 2) / 

	movl	$369315,	%esi
	pushl	%edx
	pushl	%esi
	pushl	%ecx
	pushl	%ebx
	pushl	$7
	call	Bsexp
	addl	$16,	%esp
	popl	%edx
	movl	%eax,	%ebx
# SLABEL ("L711") / 

L711:

# LABEL ("L709") / 

L709:

# SLABEL ("L708") / 

L708:

# END / 

	movl	%ebx,	%eax
LLlambda_82_110_epilogue:

	movl	%ebp,	%esp
	popl	%ebp
	popl	%edx
	.cfi_restore	5

	.cfi_def_cfa	4, 4

	ret
	.cfi_endproc

	.set	LLlambda_82_110_SIZE,	0

	.set	LSLlambda_82_110_SIZE,	0

	.size Llambda_82_110, .-Llambda_82_110

# LABEL ("LelseFunc") / 

LelseFunc:

# BEGIN ("LelseFunc", 0, 0, [], [], [{ blab="L714"; elab="L715"; names=[]; subs=[{ blab="L717"; elab="L718"; names=[]; subs=[]; }]; }]) / 

	.type elseFunc, @function

	.stabs "elseFunc:F1",36,0,0,LelseFunc

	.cfi_startproc

	pushl	%ebp
	.cfi_def_cfa_offset	8

	.cfi_offset 5, -8

	movl	%esp,	%ebp
	.cfi_def_cfa_register	5

	subl	$LLelseFunc_SIZE,	%esp
	movl	%esp,	%edi
	movl	$filler,	%esi
	movl	$LSLelseFunc_SIZE,	%ecx
	rep movsl	
# SLABEL ("L714") / 

L714:

# SLABEL ("L717") / 

L717:

# LINE (49) / 

	.stabn 68,0,49,0

	.stabn 68,0,49,.L56-LelseFunc

.L56:

# CLOSURE ("Lmemo", []) / 

	pushl	$Lmemo
	pushl	$1
	call	Bclosure
	addl	$8,	%esp
	movl	%eax,	%ebx
# CLOSURE ("Llambda_83_114", []) / 

	pushl	%ebx
	pushl	$Llambda_83_114
	pushl	$1
	call	Bclosure
	addl	$8,	%esp
	movl	%eax,	%ecx
	popl	%ebx
# CALL ("Li__Infix_36", 2, true) / 

	pushl	%ecx
	pushl	%ebx
	call	Li__Infix_36
	addl	$8,	%esp
	movl	%eax,	%ebx
# SLABEL ("L718") / 

L718:

# LABEL ("L716") / 

L716:

# SLABEL ("L715") / 

L715:

# END / 

	movl	%ebx,	%eax
LLelseFunc_epilogue:

	movl	%ebp,	%esp
	popl	%ebp
	.cfi_restore	5

	.cfi_def_cfa	4, 4

	ret
	.cfi_endproc

	.set	LLelseFunc_SIZE,	0

	.set	LSLelseFunc_SIZE,	0

	.size LelseFunc, .-LelseFunc

# LABEL ("Llambda_83_114") / 

Llambda_83_114:

# BEGIN ("Llambda_83_114", 1, 0, [], ["__tmp56"], [{ blab="L721"; elab="L722"; names=[]; subs=[]; }]) / 

	.type lambda_83_114, @function

	.stabs "lambda_83_114:F1",36,0,0,Llambda_83_114

	.stabs "__tmp56:p1",160,0,0,8

	.cfi_startproc

	pushl	%ebp
	.cfi_def_cfa_offset	8

	.cfi_offset 5, -8

	movl	%esp,	%ebp
	.cfi_def_cfa_register	5

	subl	$LLlambda_83_114_SIZE,	%esp
	movl	%esp,	%edi
	movl	$filler,	%esi
	movl	$LSLlambda_83_114_SIZE,	%ecx
	rep movsl	
# SLABEL ("L721") / 

L721:

# LINE (50) / 

	.stabn 68,0,50,0

	.stabn 68,0,50,.L57-Llambda_83_114

.L57:

# LD (Global ("kElse")) / 

	movl	global_kElse,	%ebx
# CLOSURE ("Llambda_84_115", []) / 

	pushl	%ebx
	pushl	$Llambda_84_115
	pushl	$1
	call	Bclosure
	addl	$8,	%esp
	movl	%eax,	%ecx
	popl	%ebx
# CALL ("Lseq", 2, false) / 

	pushl	%ecx
	pushl	%ebx
	call	Lseq
	addl	$8,	%esp
	movl	%eax,	%ebx
# LD (Arg (0)) / 

	movl	8(%ebp),	%ecx
# CALLC (1, true) / 

	movl	%ecx,	8(%ebp)
	movl	%ebx,	%edx
	movl	(%edx),	%eax
	movl	%ebp,	%esp
	popl	%ebp
	jmp	*%eax
# LABEL ("L723") / 

L723:

# SLABEL ("L722") / 

L722:

# END / 

	movl	%ebx,	%eax
LLlambda_83_114_epilogue:

	movl	%ebp,	%esp
	popl	%ebp
	.cfi_restore	5

	.cfi_def_cfa	4, 4

	ret
	.cfi_endproc

	.set	LLlambda_83_114_SIZE,	0

	.set	LSLlambda_83_114_SIZE,	0

	.size Llambda_83_114, .-Llambda_83_114

# LABEL ("Llambda_84_115") / 

Llambda_84_115:

# BEGIN ("Llambda_84_115", 1, 0, [], ["__tmp47"], [{ blab="L728"; elab="L729"; names=[]; subs=[]; }]) / 

	.type lambda_84_115, @function

	.stabs "lambda_84_115:F1",36,0,0,Llambda_84_115

	.stabs "__tmp47:p1",160,0,0,8

	.cfi_startproc

	pushl	%ebp
	.cfi_def_cfa_offset	8

	.cfi_offset 5, -8

	movl	%esp,	%ebp
	.cfi_def_cfa_register	5

	subl	$LLlambda_84_115_SIZE,	%esp
	movl	%esp,	%edi
	movl	$filler,	%esi
	movl	$LSLlambda_84_115_SIZE,	%ecx
	rep movsl	
# SLABEL ("L728") / 

L728:

# LD (Global ("stmt")) / 

	movl	global_stmt,	%ebx
# CLOSURE ("Llambda_85_116", []) / 

	pushl	%ebx
	pushl	$Llambda_85_116
	pushl	$1
	call	Bclosure
	addl	$8,	%esp
	movl	%eax,	%ecx
	popl	%ebx
# CALL ("Lseq", 2, false) / 

	pushl	%ecx
	pushl	%ebx
	call	Lseq
	addl	$8,	%esp
	movl	%eax,	%ebx
# LD (Global ("stmt")) / 

	movl	global_stmt,	%ecx
# CLOSURE ("Llambda_86_116", []) / 

	pushl	%ebx
	pushl	%ecx
	pushl	$Llambda_86_116
	pushl	$1
	call	Bclosure
	addl	$8,	%esp
	movl	%eax,	%esi
	popl	%ecx
	popl	%ebx
# CALL ("Li__Infix_64", 2, false) / 

	pushl	%ebx
	pushl	%esi
	pushl	%ecx
	call	Li__Infix_64
	addl	$8,	%esp
	popl	%ebx
	movl	%eax,	%ecx
# CALL ("Lalt", 2, false) / 

	pushl	%ecx
	pushl	%ebx
	call	Lalt
	addl	$8,	%esp
	movl	%eax,	%ebx
# CLOSURE ("Llambda_87_116", []) / 

	pushl	%ebx
	pushl	$Llambda_87_116
	pushl	$1
	call	Bclosure
	addl	$8,	%esp
	movl	%eax,	%ecx
	popl	%ebx
# CALL ("Lseq", 2, true) / 

	pushl	%ecx
	pushl	%ebx
	call	Lseq
	addl	$8,	%esp
	movl	%eax,	%ebx
# LABEL ("L730") / 

L730:

# SLABEL ("L729") / 

L729:

# END / 

	movl	%ebx,	%eax
LLlambda_84_115_epilogue:

	movl	%ebp,	%esp
	popl	%ebp
	.cfi_restore	5

	.cfi_def_cfa	4, 4

	ret
	.cfi_endproc

	.set	LLlambda_84_115_SIZE,	0

	.set	LSLlambda_84_115_SIZE,	0

	.size Llambda_84_115, .-Llambda_84_115

# LABEL ("Llambda_87_116") / 

Llambda_87_116:

# BEGIN ("Llambda_87_116", 1, 0, [], ["e"], [{ blab="L739"; elab="L740"; names=[]; subs=[]; }]) / 

	.type lambda_87_116, @function

	.stabs "lambda_87_116:F1",36,0,0,Llambda_87_116

	.stabs "e:p1",160,0,0,8

	.cfi_startproc

	pushl	%ebp
	.cfi_def_cfa_offset	8

	.cfi_offset 5, -8

	movl	%esp,	%ebp
	.cfi_def_cfa_register	5

	subl	$LLlambda_87_116_SIZE,	%esp
	movl	%esp,	%edi
	movl	$filler,	%esi
	movl	$LSLlambda_87_116_SIZE,	%ecx
	rep movsl	
# SLABEL ("L739") / 

L739:

# LD (Global ("kFi")) / 

	movl	global_kFi,	%ebx
# CLOSURE ("Llambda_88_117", [Arg (0)]) / 

	pushl	%ebx
	pushl	8(%ebp)
	pushl	$Llambda_88_117
	pushl	$3
	call	Bclosure
	addl	$12,	%esp
	movl	%eax,	%ecx
	popl	%ebx
# CALL ("Li__Infix_64", 2, true) / 

	pushl	%ecx
	pushl	%ebx
	call	Li__Infix_64
	addl	$8,	%esp
	movl	%eax,	%ebx
# LABEL ("L741") / 

L741:

# SLABEL ("L740") / 

L740:

# END / 

	movl	%ebx,	%eax
LLlambda_87_116_epilogue:

	movl	%ebp,	%esp
	popl	%ebp
	.cfi_restore	5

	.cfi_def_cfa	4, 4

	ret
	.cfi_endproc

	.set	LLlambda_87_116_SIZE,	0

	.set	LSLlambda_87_116_SIZE,	0

	.size Llambda_87_116, .-Llambda_87_116

# LABEL ("Llambda_88_117") / 

Llambda_88_117:

# BEGIN ("Llambda_88_117", 1, 0, [Arg (0)], ["__tmp46"], [{ blab="L744"; elab="L745"; names=[]; subs=[{ blab="L747"; elab="L748"; names=[]; subs=[]; }]; }]) / 

	.type lambda_88_117, @function

	.stabs "lambda_88_117:F1",36,0,0,Llambda_88_117

	.stabs "__tmp46:p1",160,0,0,8

	.cfi_startproc

	pushl	%edx
	pushl	%ebp
	.cfi_def_cfa_offset	12

	.cfi_offset 5, -12

	movl	%esp,	%ebp
	.cfi_def_cfa_register	5

	subl	$LLlambda_88_117_SIZE,	%esp
	movl	%esp,	%edi
	movl	$filler,	%esi
	movl	$LSLlambda_88_117_SIZE,	%ecx
	rep movsl	
# SLABEL ("L744") / 

L744:

# SLABEL ("L747") / 

L747:

# LD (Access (0)) / 

	movl	4(%edx),	%ebx
# SLABEL ("L748") / 

L748:

# LABEL ("L746") / 

L746:

# SLABEL ("L745") / 

L745:

# END / 

	movl	%ebx,	%eax
LLlambda_88_117_epilogue:

	movl	%ebp,	%esp
	popl	%ebp
	popl	%edx
	.cfi_restore	5

	.cfi_def_cfa	4, 4

	ret
	.cfi_endproc

	.set	LLlambda_88_117_SIZE,	0

	.set	LSLlambda_88_117_SIZE,	0

	.size Llambda_88_117, .-Llambda_88_117

# LABEL ("Llambda_86_116") / 

Llambda_86_116:

# BEGIN ("Llambda_86_116", 1, 0, [], ["__tmp42"], [{ blab="L749"; elab="L750"; names=[]; subs=[]; }]) / 

	.type lambda_86_116, @function

	.stabs "lambda_86_116:F1",36,0,0,Llambda_86_116

	.stabs "__tmp42:p1",160,0,0,8

	.cfi_startproc

	pushl	%ebp
	.cfi_def_cfa_offset	8

	.cfi_offset 5, -8

	movl	%esp,	%ebp
	.cfi_def_cfa_register	5

	subl	$LLlambda_86_116_SIZE,	%esp
	movl	%esp,	%edi
	movl	$filler,	%esi
	movl	$LSLlambda_86_116_SIZE,	%ecx
	rep movsl	
# SLABEL ("L749") / 

L749:

# LD (Arg (0)) / 

	movl	8(%ebp),	%ebx
# LABEL ("L751") / 

L751:

# SLABEL ("L750") / 

L750:

# END / 

	movl	%ebx,	%eax
LLlambda_86_116_epilogue:

	movl	%ebp,	%esp
	popl	%ebp
	.cfi_restore	5

	.cfi_def_cfa	4, 4

	ret
	.cfi_endproc

	.set	LLlambda_86_116_SIZE,	0

	.set	LSLlambda_86_116_SIZE,	0

	.size Llambda_86_116, .-Llambda_86_116

# LABEL ("Llambda_85_116") / 

Llambda_85_116:

# BEGIN ("Llambda_85_116", 1, 0, [], ["x1"], [{ blab="L752"; elab="L753"; names=[]; subs=[]; }]) / 

	.type lambda_85_116, @function

	.stabs "lambda_85_116:F1",36,0,0,Llambda_85_116

	.stabs "x1:p1",160,0,0,8

	.cfi_startproc

	pushl	%ebp
	.cfi_def_cfa_offset	8

	.cfi_offset 5, -8

	movl	%esp,	%ebp
	.cfi_def_cfa_register	5

	subl	$LLlambda_85_116_SIZE,	%esp
	movl	%esp,	%edi
	movl	$filler,	%esi
	movl	$LSLlambda_85_116_SIZE,	%ecx
	rep movsl	
# SLABEL ("L752") / 

L752:

# STRING (";") / 

	movl	$string_13,	%ebx
	pushl	%ebx
	call	Bstring
	addl	$4,	%esp
	movl	%eax,	%ebx
# CALL ("Ls", 1, false) / 

	pushl	%ebx
	call	Ls
	addl	$4,	%esp
	movl	%eax,	%ebx
# CLOSURE ("Llambda_89_121", [Arg (0)]) / 

	pushl	%ebx
	pushl	8(%ebp)
	pushl	$Llambda_89_121
	pushl	$3
	call	Bclosure
	addl	$12,	%esp
	movl	%eax,	%ecx
	popl	%ebx
# CALL ("Lseq", 2, true) / 

	pushl	%ecx
	pushl	%ebx
	call	Lseq
	addl	$8,	%esp
	movl	%eax,	%ebx
# LABEL ("L754") / 

L754:

# SLABEL ("L753") / 

L753:

# END / 

	movl	%ebx,	%eax
LLlambda_85_116_epilogue:

	movl	%ebp,	%esp
	popl	%ebp
	.cfi_restore	5

	.cfi_def_cfa	4, 4

	ret
	.cfi_endproc

	.set	LLlambda_85_116_SIZE,	0

	.set	LSLlambda_85_116_SIZE,	0

	.size Llambda_85_116, .-Llambda_85_116

# LABEL ("Llambda_89_121") / 

Llambda_89_121:

# BEGIN ("Llambda_89_121", 1, 0, [Arg (0)], ["__tmp41"], [{ blab="L758"; elab="L759"; names=[]; subs=[]; }]) / 

	.type lambda_89_121, @function

	.stabs "lambda_89_121:F1",36,0,0,Llambda_89_121

	.stabs "__tmp41:p1",160,0,0,8

	.cfi_startproc

	pushl	%edx
	pushl	%ebp
	.cfi_def_cfa_offset	12

	.cfi_offset 5, -12

	movl	%esp,	%ebp
	.cfi_def_cfa_register	5

	subl	$LLlambda_89_121_SIZE,	%esp
	movl	%esp,	%edi
	movl	$filler,	%esi
	movl	$LSLlambda_89_121_SIZE,	%ecx
	rep movsl	
# SLABEL ("L758") / 

L758:

# LD (Global ("parse")) / 

	movl	global_parse,	%ebx
# CLOSURE ("Llambda_90_122", [Access (0)]) / 

	pushl	%ebx
	pushl	4(%edx)
	pushl	$Llambda_90_122
	pushl	$3
	call	Bclosure
	addl	$12,	%esp
	movl	%eax,	%ecx
	popl	%ebx
	movl	4(%ebp),	%edx
# CALL ("Li__Infix_64", 2, true) / 

	pushl	%edx
	pushl	%ecx
	pushl	%ebx
	call	Li__Infix_64
	addl	$8,	%esp
	popl	%edx
	movl	%eax,	%ebx
# LABEL ("L760") / 

L760:

# SLABEL ("L759") / 

L759:

# END / 

	movl	%ebx,	%eax
LLlambda_89_121_epilogue:

	movl	%ebp,	%esp
	popl	%ebp
	popl	%edx
	.cfi_restore	5

	.cfi_def_cfa	4, 4

	ret
	.cfi_endproc

	.set	LLlambda_89_121_SIZE,	0

	.set	LSLlambda_89_121_SIZE,	0

	.size Llambda_89_121, .-Llambda_89_121

# LABEL ("Llambda_90_122") / 

Llambda_90_122:

# BEGIN ("Llambda_90_122", 1, 0, [Access (0)], ["x2"], [{ blab="L763"; elab="L764"; names=[]; subs=[{ blab="L766"; elab="L767"; names=[]; subs=[]; }]; }]) / 

	.type lambda_90_122, @function

	.stabs "lambda_90_122:F1",36,0,0,Llambda_90_122

	.stabs "x2:p1",160,0,0,8

	.cfi_startproc

	pushl	%edx
	pushl	%ebp
	.cfi_def_cfa_offset	12

	.cfi_offset 5, -12

	movl	%esp,	%ebp
	.cfi_def_cfa_register	5

	subl	$LLlambda_90_122_SIZE,	%esp
	movl	%esp,	%edi
	movl	$filler,	%esi
	movl	$LSLlambda_90_122_SIZE,	%ecx
	rep movsl	
# SLABEL ("L763") / 

L763:

# SLABEL ("L766") / 

L766:

# LD (Access (0)) / 

	movl	4(%edx),	%ebx
# LD (Arg (0)) / 

	movl	12(%ebp),	%ecx
# SEXP ("Seq", 2) / 

	movl	$369315,	%esi
	pushl	%edx
	pushl	%esi
	pushl	%ecx
	pushl	%ebx
	pushl	$7
	call	Bsexp
	addl	$16,	%esp
	popl	%edx
	movl	%eax,	%ebx
# SLABEL ("L767") / 

L767:

# LABEL ("L765") / 

L765:

# SLABEL ("L764") / 

L764:

# END / 

	movl	%ebx,	%eax
LLlambda_90_122_epilogue:

	movl	%ebp,	%esp
	popl	%ebp
	popl	%edx
	.cfi_restore	5

	.cfi_def_cfa	4, 4

	ret
	.cfi_endproc

	.set	LLlambda_90_122_SIZE,	0

	.set	LSLlambda_90_122_SIZE,	0

	.size Llambda_90_122, .-Llambda_90_122

# LABEL ("LfuncExpr") / 

LfuncExpr:

# BEGIN ("LfuncExpr", 1, 0, [], ["op"], [{ blab="L770"; elab="L771"; names=[]; subs=[{ blab="L773"; elab="L774"; names=[]; subs=[]; }]; }]) / 

	.type funcExpr, @function

	.stabs "funcExpr:F1",36,0,0,LfuncExpr

	.stabs "op:p1",160,0,0,8

	.cfi_startproc

	pushl	%ebp
	.cfi_def_cfa_offset	8

	.cfi_offset 5, -8

	movl	%esp,	%ebp
	.cfi_def_cfa_register	5

	subl	$LLfuncExpr_SIZE,	%esp
	movl	%esp,	%edi
	movl	$filler,	%esi
	movl	$LSLfuncExpr_SIZE,	%ecx
	rep movsl	
# SLABEL ("L770") / 

L770:

# SLABEL ("L773") / 

L773:

# LINE (46) / 

	.stabn 68,0,46,0

	.stabn 68,0,46,.L58-LfuncExpr

.L58:

# LD (Arg (0)) / 

	movl	8(%ebp),	%ebx
# CALL ("Ls", 1, false) / 

	pushl	%ebx
	call	Ls
	addl	$4,	%esp
	movl	%eax,	%ebx
# CLOSURE ("Llambda_91_126", []) / 

	pushl	%ebx
	pushl	$Llambda_91_126
	pushl	$1
	call	Bclosure
	addl	$8,	%esp
	movl	%eax,	%ecx
	popl	%ebx
# CALL (".array", 2, true) / 

	pushl	%ecx
	pushl	%ebx
	pushl	$5
	call	Barray
	addl	$12,	%esp
	movl	%eax,	%ebx
# SLABEL ("L774") / 

L774:

# LABEL ("L772") / 

L772:

# SLABEL ("L771") / 

L771:

# END / 

	movl	%ebx,	%eax
LLfuncExpr_epilogue:

	movl	%ebp,	%esp
	popl	%ebp
	.cfi_restore	5

	.cfi_def_cfa	4, 4

	ret
	.cfi_endproc

	.set	LLfuncExpr_SIZE,	0

	.set	LSLfuncExpr_SIZE,	0

	.size LfuncExpr, .-LfuncExpr

# LABEL ("Llambda_91_126") / 

Llambda_91_126:

# BEGIN ("Llambda_91_126", 3, 0, [], ["l"; "op"; "r"], [{ blab="L778"; elab="L779"; names=[]; subs=[{ blab="L781"; elab="L782"; names=[]; subs=[]; }]; }]) / 

	.type lambda_91_126, @function

	.stabs "lambda_91_126:F1",36,0,0,Llambda_91_126

	.stabs "l:p1",160,0,0,8

	.stabs "op:p1",160,0,0,12

	.stabs "r:p1",160,0,0,16

	.cfi_startproc

	pushl	%ebp
	.cfi_def_cfa_offset	8

	.cfi_offset 5, -8

	movl	%esp,	%ebp
	.cfi_def_cfa_register	5

	subl	$LLlambda_91_126_SIZE,	%esp
	movl	%esp,	%edi
	movl	$filler,	%esi
	movl	$LSLlambda_91_126_SIZE,	%ecx
	rep movsl	
# SLABEL ("L778") / 

L778:

# SLABEL ("L781") / 

L781:

# LD (Arg (1)) / 

	movl	12(%ebp),	%ebx
# LD (Arg (0)) / 

	movl	8(%ebp),	%ecx
# LD (Arg (2)) / 

	movl	16(%ebp),	%esi
# SEXP ("Binop", 3) / 

	movl	$944359329,	%edi
	pushl	%edi
	pushl	%esi
	pushl	%ecx
	pushl	%ebx
	pushl	$9
	call	Bsexp
	addl	$20,	%esp
	movl	%eax,	%ebx
# SLABEL ("L782") / 

L782:

# LABEL ("L780") / 

L780:

# SLABEL ("L779") / 

L779:

# END / 

	movl	%ebx,	%eax
LLlambda_91_126_epilogue:

	movl	%ebp,	%esp
	popl	%ebp
	.cfi_restore	5

	.cfi_def_cfa	4, 4

	ret
	.cfi_endproc

	.set	LLlambda_91_126_SIZE,	0

	.set	LSLlambda_91_126_SIZE,	0

	.size Llambda_91_126, .-Llambda_91_126

# LABEL ("LfuncExprSymb") / 

LfuncExprSymb:

# BEGIN ("LfuncExprSymb", 1, 0, [], ["expr"], [{ blab="L786"; elab="L787"; names=[]; subs=[{ blab="L789"; elab="L790"; names=[]; subs=[]; }]; }]) / 

	.type funcExprSymb, @function

	.stabs "funcExprSymb:F1",36,0,0,LfuncExprSymb

	.stabs "expr:p1",160,0,0,8

	.cfi_startproc

	pushl	%ebp
	.cfi_def_cfa_offset	8

	.cfi_offset 5, -8

	movl	%esp,	%ebp
	.cfi_def_cfa_register	5

	subl	$LLfuncExprSymb_SIZE,	%esp
	movl	%esp,	%edi
	movl	$filler,	%esi
	movl	$LSLfuncExprSymb_SIZE,	%ecx
	rep movsl	
# SLABEL ("L786") / 

L786:

# SLABEL ("L789") / 

L789:

# LINE (41) / 

	.stabn 68,0,41,0

	.stabn 68,0,41,.L59-LfuncExprSymb

.L59:

# LINE (42) / 

	.stabn 68,0,42,.L60-LfuncExprSymb

.L60:

# CLOSURE ("LfuncExpr", []) / 

	pushl	$LfuncExpr
	pushl	$1
	call	Bclosure
	addl	$8,	%esp
	movl	%eax,	%ebx
# LD (Arg (0)) / 

	movl	8(%ebp),	%ecx
# CALL ("Lmap", 2, true) / 

	pushl	%ecx
	pushl	%ebx
	call	Lmap
	addl	$8,	%esp
	movl	%eax,	%ebx
# SLABEL ("L790") / 

L790:

# LABEL ("L788") / 

L788:

# SLABEL ("L787") / 

L787:

# END / 

	movl	%ebx,	%eax
LLfuncExprSymb_epilogue:

	movl	%ebp,	%esp
	popl	%ebp
	.cfi_restore	5

	.cfi_def_cfa	4, 4

	ret
	.cfi_endproc

	.set	LLfuncExprSymb_SIZE,	0

	.set	LSLfuncExprSymb_SIZE,	0

	.size LfuncExprSymb, .-LfuncExprSymb

# LABEL ("LarrInbr") / 

LarrInbr:

# BEGIN ("LarrInbr", 1, 0, [], ["i"], [{ blab="L793"; elab="L794"; names=[]; subs=[{ blab="L796"; elab="L797"; names=[]; subs=[]; }]; }]) / 

	.type arrInbr, @function

	.stabs "arrInbr:F1",36,0,0,LarrInbr

	.stabs "i:p1",160,0,0,8

	.cfi_startproc

	pushl	%ebp
	.cfi_def_cfa_offset	8

	.cfi_offset 5, -8

	movl	%esp,	%ebp
	.cfi_def_cfa_register	5

	subl	$LLarrInbr_SIZE,	%esp
	movl	%esp,	%edi
	movl	$filler,	%esi
	movl	$LSLarrInbr_SIZE,	%ecx
	rep movsl	
# SLABEL ("L793") / 

L793:

# SLABEL ("L796") / 

L796:

# LINE (37) / 

	.stabn 68,0,37,0

	.stabn 68,0,37,.L61-LarrInbr

.L61:

# LINE (38) / 

	.stabn 68,0,38,.L62-LarrInbr

.L62:

# STRING ("(") / 

	movl	$string_16,	%ebx
	pushl	%ebx
	call	Bstring
	addl	$4,	%esp
	movl	%eax,	%ebx
# CALL ("Ls", 1, false) / 

	pushl	%ebx
	call	Ls
	addl	$4,	%esp
	movl	%eax,	%ebx
# LD (Arg (0)) / 

	movl	8(%ebp),	%ecx
# STRING (")") / 

	movl	$string_17,	%esi
	pushl	%ebx
	pushl	%ecx
	pushl	%esi
	call	Bstring
	addl	$4,	%esp
	popl	%ecx
	popl	%ebx
	movl	%eax,	%esi
# CALL ("Ls", 1, false) / 

	pushl	%ebx
	pushl	%ecx
	pushl	%esi
	call	Ls
	addl	$4,	%esp
	popl	%ecx
	popl	%ebx
	movl	%eax,	%esi
# CALL ("Linbr", 3, true) / 

	pushl	%esi
	pushl	%ecx
	pushl	%ebx
	call	Linbr
	addl	$12,	%esp
	movl	%eax,	%ebx
# SLABEL ("L797") / 

L797:

# LABEL ("L795") / 

L795:

# SLABEL ("L794") / 

L794:

# END / 

	movl	%ebx,	%eax
LLarrInbr_epilogue:

	movl	%ebp,	%esp
	popl	%ebp
	.cfi_restore	5

	.cfi_def_cfa	4, 4

	ret
	.cfi_endproc

	.set	LLarrInbr_SIZE,	0

	.set	LSLarrInbr_SIZE,	0

	.size LarrInbr, .-LarrInbr

# LABEL ("Linbr") / 

Linbr:

# BEGIN ("Linbr", 3, 0, [], ["l"; "p"; "r"], [{ blab="L803"; elab="L804"; names=[]; subs=[{ blab="L806"; elab="L807"; names=[]; subs=[]; }]; }]) / 

	.type inbr, @function

	.stabs "inbr:F1",36,0,0,Linbr

	.stabs "l:p1",160,0,0,8

	.stabs "p:p1",160,0,0,12

	.stabs "r:p1",160,0,0,16

	.cfi_startproc

	pushl	%ebp
	.cfi_def_cfa_offset	8

	.cfi_offset 5, -8

	movl	%esp,	%ebp
	.cfi_def_cfa_register	5

	subl	$LLinbr_SIZE,	%esp
	movl	%esp,	%edi
	movl	$filler,	%esi
	movl	$LSLinbr_SIZE,	%ecx
	rep movsl	
# SLABEL ("L803") / 

L803:

# SLABEL ("L806") / 

L806:

# LINE (11) / 

	.stabn 68,0,11,0

	.stabn 68,0,11,.L63-Linbr

.L63:

# LD (Arg (0)) / 

	movl	8(%ebp),	%ebx
# CLOSURE ("Llambda_92_134", [Arg (1); Arg (2)]) / 

	pushl	%ebx
	pushl	16(%ebp)
	pushl	12(%ebp)
	pushl	$Llambda_92_134
	pushl	$5
	call	Bclosure
	addl	$16,	%esp
	movl	%eax,	%ecx
	popl	%ebx
# CALL ("Lseq", 2, true) / 

	pushl	%ecx
	pushl	%ebx
	call	Lseq
	addl	$8,	%esp
	movl	%eax,	%ebx
# SLABEL ("L807") / 

L807:

# LABEL ("L805") / 

L805:

# SLABEL ("L804") / 

L804:

# END / 

	movl	%ebx,	%eax
LLinbr_epilogue:

	movl	%ebp,	%esp
	popl	%ebp
	.cfi_restore	5

	.cfi_def_cfa	4, 4

	ret
	.cfi_endproc

	.set	LLinbr_SIZE,	0

	.set	LSLinbr_SIZE,	0

	.size Linbr, .-Linbr

# LABEL ("Llambda_92_134") / 

Llambda_92_134:

# BEGIN ("Llambda_92_134", 1, 0, [Arg (1); Arg (2)], ["__tmp20"], [{ blab="L810"; elab="L811"; names=[]; subs=[]; }]) / 

	.type lambda_92_134, @function

	.stabs "lambda_92_134:F1",36,0,0,Llambda_92_134

	.stabs "__tmp20:p1",160,0,0,8

	.cfi_startproc

	pushl	%edx
	pushl	%ebp
	.cfi_def_cfa_offset	12

	.cfi_offset 5, -12

	movl	%esp,	%ebp
	.cfi_def_cfa_register	5

	subl	$LLlambda_92_134_SIZE,	%esp
	movl	%esp,	%edi
	movl	$filler,	%esi
	movl	$LSLlambda_92_134_SIZE,	%ecx
	rep movsl	
# SLABEL ("L810") / 

L810:

# LD (Access (0)) / 

	movl	4(%edx),	%ebx
# CLOSURE ("Llambda_93_135", [Access (1)]) / 

	pushl	%ebx
	pushl	8(%edx)
	pushl	$Llambda_93_135
	pushl	$3
	call	Bclosure
	addl	$12,	%esp
	movl	%eax,	%ecx
	popl	%ebx
	movl	4(%ebp),	%edx
# CALL ("Lseq", 2, true) / 

	pushl	%edx
	pushl	%ecx
	pushl	%ebx
	call	Lseq
	addl	$8,	%esp
	popl	%edx
	movl	%eax,	%ebx
# LABEL ("L812") / 

L812:

# SLABEL ("L811") / 

L811:

# END / 

	movl	%ebx,	%eax
LLlambda_92_134_epilogue:

	movl	%ebp,	%esp
	popl	%ebp
	popl	%edx
	.cfi_restore	5

	.cfi_def_cfa	4, 4

	ret
	.cfi_endproc

	.set	LLlambda_92_134_SIZE,	0

	.set	LSLlambda_92_134_SIZE,	0

	.size Llambda_92_134, .-Llambda_92_134

# LABEL ("Llambda_93_135") / 

Llambda_93_135:

# BEGIN ("Llambda_93_135", 1, 0, [Access (1)], ["__tmp18"], [{ blab="L815"; elab="L816"; names=[]; subs=[]; }]) / 

	.type lambda_93_135, @function

	.stabs "lambda_93_135:F1",36,0,0,Llambda_93_135

	.stabs "__tmp18:p1",160,0,0,8

	.cfi_startproc

	pushl	%edx
	pushl	%ebp
	.cfi_def_cfa_offset	12

	.cfi_offset 5, -12

	movl	%esp,	%ebp
	.cfi_def_cfa_register	5

	subl	$LLlambda_93_135_SIZE,	%esp
	movl	%esp,	%edi
	movl	$filler,	%esi
	movl	$LSLlambda_93_135_SIZE,	%ecx
	rep movsl	
# SLABEL ("L815") / 

L815:

# LD (Access (0)) / 

	movl	4(%edx),	%ebx
# CLOSURE ("Llambda_94_136", [Arg (0)]) / 

	pushl	%ebx
	pushl	12(%ebp)
	pushl	$Llambda_94_136
	pushl	$3
	call	Bclosure
	addl	$12,	%esp
	movl	%eax,	%ecx
	popl	%ebx
	movl	4(%ebp),	%edx
# CALL ("Li__Infix_64", 2, true) / 

	pushl	%edx
	pushl	%ecx
	pushl	%ebx
	call	Li__Infix_64
	addl	$8,	%esp
	popl	%edx
	movl	%eax,	%ebx
# LABEL ("L817") / 

L817:

# SLABEL ("L816") / 

L816:

# END / 

	movl	%ebx,	%eax
LLlambda_93_135_epilogue:

	movl	%ebp,	%esp
	popl	%ebp
	popl	%edx
	.cfi_restore	5

	.cfi_def_cfa	4, 4

	ret
	.cfi_endproc

	.set	LLlambda_93_135_SIZE,	0

	.set	LSLlambda_93_135_SIZE,	0

	.size Llambda_93_135, .-Llambda_93_135

# LABEL ("Llambda_94_136") / 

Llambda_94_136:

# BEGIN ("Llambda_94_136", 1, 0, [Arg (0)], ["__tmp19"], [{ blab="L820"; elab="L821"; names=[]; subs=[]; }]) / 

	.type lambda_94_136, @function

	.stabs "lambda_94_136:F1",36,0,0,Llambda_94_136

	.stabs "__tmp19:p1",160,0,0,8

	.cfi_startproc

	pushl	%edx
	pushl	%ebp
	.cfi_def_cfa_offset	12

	.cfi_offset 5, -12

	movl	%esp,	%ebp
	.cfi_def_cfa_register	5

	subl	$LLlambda_94_136_SIZE,	%esp
	movl	%esp,	%edi
	movl	$filler,	%esi
	movl	$LSLlambda_94_136_SIZE,	%ecx
	rep movsl	
# SLABEL ("L820") / 

L820:

# LD (Access (0)) / 

	movl	4(%edx),	%ebx
# LABEL ("L822") / 

L822:

# SLABEL ("L821") / 

L821:

# END / 

	movl	%ebx,	%eax
LLlambda_94_136_epilogue:

	movl	%ebp,	%esp
	popl	%ebp
	popl	%edx
	.cfi_restore	5

	.cfi_def_cfa	4, 4

	ret
	.cfi_endproc

	.set	LLlambda_94_136_SIZE,	0

	.set	LSLlambda_94_136_SIZE,	0

	.size Llambda_94_136, .-Llambda_94_136

