	.file "/home/aleks/Nup/Compiles/compilers-supplementary/src/SM.lama"

	.stabs "/home/aleks/Nup/Compiles/compilers-supplementary/src/SM.lama",100,0,0,.Ltext

	.globl	LcompileSM

	.globl	LevalSM

	.globl	LshowSM

	.globl	LshowSMInsn

	.globl	initSM

	.data

string_6:	.string	"BINOP %s"

string_9:	.string	"CONST %d"

string_7:	.string	"LD %s"

string_4:	.string	"READ"

string_2:	.string	"SM eval not implemented\n"

string_10:	.string	"SM.lama"

string_8:	.string	"ST %s"

string_5:	.string	"WRITE"

string_3:	.string	"\n"

string_1:	.string	"compileExpr not implemented\n"

string_0:	.string	"compileSM not implemented\n"

_init:	.int 0

	.section custom_data,"aw",@progbits

filler:	.fill	2, 4, 1

	.text

.Ltext:

	.stabs "data:t1=r1;0;4294967295;",128,0,0,0

# IMPORT ("Std") / 

# IMPORT ("List") / 

# IMPORT ("World") / 

# IMPORT ("State") / 

# IMPORT ("Expr") / 

# IMPORT ("Buffer") / 

# IMPORT ("Fun") / 

# PUBLIC ("initSM") / 

# PUBLIC ("LshowSMInsn") / 

# PUBLIC ("LshowSM") / 

# PUBLIC ("LevalSM") / 

# PUBLIC ("LcompileSM") / 

# EXTERN ("Lfix") / 

# EXTERN ("Li__Infix_35") / 

# EXTERN ("Li__Infix_36") / 

# EXTERN ("Lid") / 

# EXTERN ("LgetBuffer") / 

# EXTERN ("Li__Infix_6043") / 

# EXTERN ("Li__Infix_604362") / 

# EXTERN ("LconcatBuffer") / 

# EXTERN ("LaddBuffer") / 

# EXTERN ("LlistBuffer") / 

# EXTERN ("LsingletonBuffer") / 

# EXTERN ("LemptyBuffer") / 

# EXTERN ("LevalExpr") / 

# EXTERN ("LevalOp") / 

# EXTERN ("Li__Infix_6045") / 

# EXTERN ("LemptyState") / 

# EXTERN ("LgetOutput") / 

# EXTERN ("LreadWorld") / 

# EXTERN ("LwriteWorld") / 

# EXTERN ("LcreateWorld") / 

# EXTERN ("Lfilter") / 

# EXTERN ("Lremove") / 

# EXTERN ("Lunzip") / 

# EXTERN ("Lzip") / 

# EXTERN ("LdeepFlatten") / 

# EXTERN ("Lflatten") / 

# EXTERN ("Lfind") / 

# EXTERN ("Lassoc") / 

# EXTERN ("Lreverse") / 

# EXTERN ("Li__Infix_434343") / 

# EXTERN ("Lmap") / 

# EXTERN ("Liter") / 

# EXTERN ("Lfoldr") / 

# EXTERN ("Lfoldl") / 

# EXTERN ("Lsize") / 

# EXTERN ("Llowercase") / 

# EXTERN ("Luppercase") / 

# EXTERN ("LtagHash") / 

# EXTERN ("LflatCompare") / 

# EXTERN ("LcompareTags") / 

# EXTERN ("LkindOf") / 

# EXTERN ("Ltime") / 

# EXTERN ("Lrandom") / 

# EXTERN ("LdisableGC") / 

# EXTERN ("LenableGC") / 

# EXTERN ("Ls__Infix_37") / 

# EXTERN ("Ls__Infix_47") / 

# EXTERN ("Ls__Infix_42") / 

# EXTERN ("Ls__Infix_45") / 

# EXTERN ("Ls__Infix_43") / 

# EXTERN ("Ls__Infix_62") / 

# EXTERN ("Ls__Infix_6261") / 

# EXTERN ("Ls__Infix_60") / 

# EXTERN ("Ls__Infix_6061") / 

# EXTERN ("Ls__Infix_3361") / 

# EXTERN ("Ls__Infix_6161") / 

# EXTERN ("Ls__Infix_3838") / 

# EXTERN ("Ls__Infix_3333") / 

# EXTERN ("Ls__Infix_58") / 

# EXTERN ("Li__Infix_4343") / 

# EXTERN ("Lcompare") / 

# EXTERN ("Lwrite") / 

# EXTERN ("Lread") / 

# EXTERN ("Lfailure") / 

# EXTERN ("Lfexists") / 

# EXTERN ("Lfwrite") / 

# EXTERN ("Lfread") / 

# EXTERN ("Lfclose") / 

# EXTERN ("Lfopen") / 

# EXTERN ("Lfprintf") / 

# EXTERN ("Lprintf") / 

# EXTERN ("LmakeString") / 

# EXTERN ("Lsprintf") / 

# EXTERN ("LregexpMatch") / 

# EXTERN ("Lregexp") / 

# EXTERN ("Lsubstring") / 

# EXTERN ("LmatchSubString") / 

# EXTERN ("Lstringcat") / 

# EXTERN ("LreadLine") / 

# EXTERN ("Ltl") / 

# EXTERN ("Lhd") / 

# EXTERN ("Lsnd") / 

# EXTERN ("Lfst") / 

# EXTERN ("Lhash") / 

# EXTERN ("Lclone") / 

# EXTERN ("Llength") / 

# EXTERN ("Lstring") / 

# EXTERN ("LmakeArray") / 

# EXTERN ("LstringInt") / 

# EXTERN ("global_sysargs") / 

# EXTERN ("Lsystem") / 

# EXTERN ("LgetEnv") / 

# EXTERN ("Lassert") / 

# LABEL ("initSM") / 

initSM:

# BEGIN ("initSM", 0, 0, [], [], []) / 

	.type initSM, @function

	.stabs "initSM:F1",36,0,0,initSM

	.cfi_startproc

	movl	_init,	%eax
	test	%eax,	%eax
	jz	_continue
	ret
_continue:

	movl	$1,	_init
	pushl	%ebp
	.cfi_def_cfa_offset	8

	.cfi_offset 5, -8

	movl	%esp,	%ebp
	.cfi_def_cfa_register	5

	subl	$LinitSM_SIZE,	%esp
	movl	%esp,	%edi
	movl	$filler,	%esi
	movl	$LSinitSM_SIZE,	%ecx
	rep movsl	
	call	initList
	call	initWorld
	call	initState
	call	initExpr
	call	initBuffer
	call	initFun
# SLABEL ("L1") / 

L1:

# CONST (0) / 

	movl	$1,	%ebx
# SLABEL ("L2") / 

L2:

# END / 

	movl	%ebx,	%eax
LinitSM_epilogue:

	movl	%ebp,	%esp
	popl	%ebp
	.cfi_restore	5

	.cfi_def_cfa	4, 4

	ret
	.cfi_endproc

	.set	LinitSM_SIZE,	0

	.set	LSinitSM_SIZE,	0

	.size initSM, .-initSM

# LABEL ("LcompileSM") / 

LcompileSM:

# BEGIN ("LcompileSM", 1, 0, [], ["stmt"], [{ blab="L4"; elab="L5"; names=[]; subs=[{ blab="L7"; elab="L8"; names=[]; subs=[]; }]; }]) / 

	.type compileSM, @function

	.stabs "compileSM:F1",36,0,0,LcompileSM

	.stabs "stmt:p1",160,0,0,8

	.cfi_startproc

	pushl	%ebp
	.cfi_def_cfa_offset	8

	.cfi_offset 5, -8

	movl	%esp,	%ebp
	.cfi_def_cfa_register	5

	subl	$LLcompileSM_SIZE,	%esp
	movl	%esp,	%edi
	movl	$filler,	%esi
	movl	$LSLcompileSM_SIZE,	%ecx
	rep movsl	
# SLABEL ("L4") / 

L4:

# SLABEL ("L7") / 

L7:

# LINE (48) / 

	.stabn 68,0,48,0

	.stabn 68,0,48,.L0-LcompileSM

.L0:

# STRING ("compileSM not implemented\\n") / 

	movl	$string_0,	%ebx
	pushl	%ebx
	call	Bstring
	addl	$4,	%esp
	movl	%eax,	%ebx
# CALL ("Lfailure", 1, true) / 

	movl	%ebx,	8(%ebp)
	movl	%ebp,	%esp
	popl	%ebp
	jmp	Lfailure
# SLABEL ("L8") / 

L8:

# LABEL ("L6") / 

L6:

# SLABEL ("L5") / 

L5:

# END / 

	movl	%ebx,	%eax
LLcompileSM_epilogue:

	movl	%ebp,	%esp
	popl	%ebp
	.cfi_restore	5

	.cfi_def_cfa	4, 4

	ret
	.cfi_endproc

	.set	LLcompileSM_SIZE,	0

	.set	LSLcompileSM_SIZE,	0

	.size LcompileSM, .-LcompileSM

# LABEL ("LcompileExpr") / 

LcompileExpr:

# BEGIN ("LcompileExpr", 1, 0, [], ["expr"], [{ blab="L10"; elab="L11"; names=[]; subs=[{ blab="L13"; elab="L14"; names=[]; subs=[]; }]; }]) / 

	.type compileExpr, @function

	.stabs "compileExpr:F1",36,0,0,LcompileExpr

	.stabs "expr:p1",160,0,0,8

	.cfi_startproc

	pushl	%ebp
	.cfi_def_cfa_offset	8

	.cfi_offset 5, -8

	movl	%esp,	%ebp
	.cfi_def_cfa_register	5

	subl	$LLcompileExpr_SIZE,	%esp
	movl	%esp,	%edi
	movl	$filler,	%esi
	movl	$LSLcompileExpr_SIZE,	%ecx
	rep movsl	
# SLABEL ("L10") / 

L10:

# SLABEL ("L13") / 

L13:

# LINE (41) / 

	.stabn 68,0,41,0

	.stabn 68,0,41,.L1-LcompileExpr

.L1:

# STRING ("compileExpr not implemented\\n") / 

	movl	$string_1,	%ebx
	pushl	%ebx
	call	Bstring
	addl	$4,	%esp
	movl	%eax,	%ebx
# CALL ("Lfailure", 1, true) / 

	movl	%ebx,	8(%ebp)
	movl	%ebp,	%esp
	popl	%ebp
	jmp	Lfailure
# SLABEL ("L14") / 

L14:

# LABEL ("L12") / 

L12:

# SLABEL ("L11") / 

L11:

# END / 

	movl	%ebx,	%eax
LLcompileExpr_epilogue:

	movl	%ebp,	%esp
	popl	%ebp
	.cfi_restore	5

	.cfi_def_cfa	4, 4

	ret
	.cfi_endproc

	.set	LLcompileExpr_SIZE,	0

	.set	LSLcompileExpr_SIZE,	0

	.size LcompileExpr, .-LcompileExpr

# LABEL ("LevalSM") / 

LevalSM:

# BEGIN ("LevalSM", 2, 0, [], ["input"; "insns"], [{ blab="L16"; elab="L17"; names=[]; subs=[{ blab="L19"; elab="L20"; names=[]; subs=[]; }]; }]) / 

	.type evalSM, @function

	.stabs "evalSM:F1",36,0,0,LevalSM

	.stabs "input:p1",160,0,0,8

	.stabs "insns:p1",160,0,0,12

	.cfi_startproc

	pushl	%ebp
	.cfi_def_cfa_offset	8

	.cfi_offset 5, -8

	movl	%esp,	%ebp
	.cfi_def_cfa_register	5

	subl	$LLevalSM_SIZE,	%esp
	movl	%esp,	%edi
	movl	$filler,	%esi
	movl	$LSLevalSM_SIZE,	%ecx
	rep movsl	
# SLABEL ("L16") / 

L16:

# SLABEL ("L19") / 

L19:

# LINE (34) / 

	.stabn 68,0,34,0

	.stabn 68,0,34,.L2-LevalSM

.L2:

# CONST (0) / 

	movl	$1,	%ebx
# LINE (35) / 

	.stabn 68,0,35,.L3-LevalSM

.L3:

# CLOSURE ("LemptyState", []) / 

	pushl	%ebx
	pushl	$LemptyState
	pushl	$1
	call	Bclosure
	addl	$8,	%esp
	movl	%eax,	%ecx
	popl	%ebx
# LD (Arg (0)) / 

	movl	8(%ebp),	%esi
# CALL ("LcreateWorld", 1, false) / 

	pushl	%ebx
	pushl	%ecx
	pushl	%esi
	call	LcreateWorld
	addl	$4,	%esp
	popl	%ecx
	popl	%ebx
	movl	%eax,	%esi
# CALL (".array", 3, false) / 

	pushl	%esi
	pushl	%ecx
	pushl	%ebx
	pushl	$7
	call	Barray
	addl	$16,	%esp
	movl	%eax,	%ebx
# LD (Arg (1)) / 

	movl	12(%ebp),	%ecx
# CALL ("Leval", 2, false) / 

	pushl	%ecx
	pushl	%ebx
	call	Leval
	addl	$8,	%esp
	movl	%eax,	%ebx
# CONST (2) / 

	movl	$5,	%ecx
# ELEM / 

	pushl	%ecx
	pushl	%ebx
	call	Belem
	addl	$8,	%esp
	movl	%eax,	%ebx
# CALL ("LgetOutput", 1, true) / 

	pushl	%ebx
	call	LgetOutput
	addl	$4,	%esp
	movl	%eax,	%ebx
# SLABEL ("L20") / 

L20:

# LABEL ("L18") / 

L18:

# SLABEL ("L17") / 

L17:

# END / 

	movl	%ebx,	%eax
LLevalSM_epilogue:

	movl	%ebp,	%esp
	popl	%ebp
	.cfi_restore	5

	.cfi_def_cfa	4, 4

	ret
	.cfi_endproc

	.set	LLevalSM_SIZE,	0

	.set	LSLevalSM_SIZE,	0

	.size LevalSM, .-LevalSM

# LABEL ("Leval") / 

Leval:

# BEGIN ("Leval", 2, 0, [], ["c"; "insns"], [{ blab="L30"; elab="L31"; names=[]; subs=[{ blab="L33"; elab="L34"; names=[]; subs=[]; }]; }]) / 

	.type eval, @function

	.stabs "eval:F1",36,0,0,Leval

	.stabs "c:p1",160,0,0,8

	.stabs "insns:p1",160,0,0,12

	.cfi_startproc

	pushl	%ebp
	.cfi_def_cfa_offset	8

	.cfi_offset 5, -8

	movl	%esp,	%ebp
	.cfi_def_cfa_register	5

	subl	$LLeval_SIZE,	%esp
	movl	%esp,	%edi
	movl	$filler,	%esi
	movl	$LSLeval_SIZE,	%ecx
	rep movsl	
# SLABEL ("L30") / 

L30:

# SLABEL ("L33") / 

L33:

# LINE (29) / 

	.stabn 68,0,29,0

	.stabn 68,0,29,.L4-Leval

.L4:

# STRING ("SM eval not implemented\\n") / 

	movl	$string_2,	%ebx
	pushl	%ebx
	call	Bstring
	addl	$4,	%esp
	movl	%eax,	%ebx
# CALL ("Lfailure", 1, true) / 

	pushl	%ebx
	call	Lfailure
	addl	$4,	%esp
	movl	%eax,	%ebx
# SLABEL ("L34") / 

L34:

# LABEL ("L32") / 

L32:

# SLABEL ("L31") / 

L31:

# END / 

	movl	%ebx,	%eax
LLeval_epilogue:

	movl	%ebp,	%esp
	popl	%ebp
	.cfi_restore	5

	.cfi_def_cfa	4, 4

	ret
	.cfi_endproc

	.set	LLeval_SIZE,	0

	.set	LSLeval_SIZE,	0

	.size Leval, .-Leval

# LABEL ("LshowSM") / 

LshowSM:

# BEGIN ("LshowSM", 1, 0, [], ["prg"], [{ blab="L36"; elab="L37"; names=[]; subs=[{ blab="L39"; elab="L40"; names=[]; subs=[]; }]; }]) / 

	.type showSM, @function

	.stabs "showSM:F1",36,0,0,LshowSM

	.stabs "prg:p1",160,0,0,8

	.cfi_startproc

	pushl	%ebp
	.cfi_def_cfa_offset	8

	.cfi_offset 5, -8

	movl	%esp,	%ebp
	.cfi_def_cfa_register	5

	subl	$LLshowSM_SIZE,	%esp
	movl	%esp,	%edi
	movl	$filler,	%esi
	movl	$LSLshowSM_SIZE,	%ecx
	rep movsl	
# SLABEL ("L36") / 

L36:

# SLABEL ("L39") / 

L39:

# LINE (23) / 

	.stabn 68,0,23,0

	.stabn 68,0,23,.L5-LshowSM

.L5:

# LINE (24) / 

	.stabn 68,0,24,.L6-LshowSM

.L6:

# CLOSURE ("Llambda_0_11", []) / 

	pushl	$Llambda_0_11
	pushl	$1
	call	Bclosure
	addl	$8,	%esp
	movl	%eax,	%ebx
# LD (Arg (0)) / 

	movl	8(%ebp),	%ecx
# CALL ("Lmap", 2, false) / 

	pushl	%ecx
	pushl	%ebx
	call	Lmap
	addl	$8,	%esp
	movl	%eax,	%ebx
# CALL ("Lstringcat", 1, true) / 

	movl	%ebx,	8(%ebp)
	movl	%ebp,	%esp
	popl	%ebp
	jmp	Lstringcat
# SLABEL ("L40") / 

L40:

# LABEL ("L38") / 

L38:

# SLABEL ("L37") / 

L37:

# END / 

	movl	%ebx,	%eax
LLshowSM_epilogue:

	movl	%ebp,	%esp
	popl	%ebp
	.cfi_restore	5

	.cfi_def_cfa	4, 4

	ret
	.cfi_endproc

	.set	LLshowSM_SIZE,	0

	.set	LSLshowSM_SIZE,	0

	.size LshowSM, .-LshowSM

# LABEL ("Llambda_0_11") / 

Llambda_0_11:

# BEGIN ("Llambda_0_11", 1, 0, [], ["i"], [{ blab="L44"; elab="L45"; names=[]; subs=[{ blab="L47"; elab="L48"; names=[]; subs=[]; }]; }]) / 

	.type lambda_0_11, @function

	.stabs "lambda_0_11:F1",36,0,0,Llambda_0_11

	.stabs "i:p1",160,0,0,8

	.cfi_startproc

	pushl	%ebp
	.cfi_def_cfa_offset	8

	.cfi_offset 5, -8

	movl	%esp,	%ebp
	.cfi_def_cfa_register	5

	subl	$LLlambda_0_11_SIZE,	%esp
	movl	%esp,	%edi
	movl	$filler,	%esi
	movl	$LSLlambda_0_11_SIZE,	%ecx
	rep movsl	
# SLABEL ("L44") / 

L44:

# SLABEL ("L47") / 

L47:

# LD (Arg (0)) / 

	movl	8(%ebp),	%ebx
# CALL ("LshowSMInsn", 1, false) / 

	pushl	%ebx
	call	LshowSMInsn
	addl	$4,	%esp
	movl	%eax,	%ebx
# STRING ("\\n") / 

	movl	$string_3,	%ecx
	pushl	%ebx
	pushl	%ecx
	call	Bstring
	addl	$4,	%esp
	popl	%ebx
	movl	%eax,	%ecx
# CALL ("Li__Infix_4343", 2, true) / 

	pushl	%ecx
	pushl	%ebx
	call	Li__Infix_4343
	addl	$8,	%esp
	movl	%eax,	%ebx
# SLABEL ("L48") / 

L48:

# LABEL ("L46") / 

L46:

# SLABEL ("L45") / 

L45:

# END / 

	movl	%ebx,	%eax
LLlambda_0_11_epilogue:

	movl	%ebp,	%esp
	popl	%ebp
	.cfi_restore	5

	.cfi_def_cfa	4, 4

	ret
	.cfi_endproc

	.set	LLlambda_0_11_SIZE,	0

	.set	LSLlambda_0_11_SIZE,	0

	.size Llambda_0_11, .-Llambda_0_11

# LABEL ("LshowSMInsn") / 

LshowSMInsn:

# BEGIN ("LshowSMInsn", 1, 1, [], ["i"], [{ blab="L52"; elab="L53"; names=[]; subs=[{ blab="L55"; elab="L56"; names=[]; subs=[{ blab="L104"; elab="L105"; names=[("n", 0)]; subs=[{ blab="L106"; elab="L107"; names=[]; subs=[]; }]; }; { blab="L96"; elab="L97"; names=[("x", 0)]; subs=[{ blab="L98"; elab="L99"; names=[]; subs=[]; }]; }; { blab="L87"; elab="L88"; names=[("x", 0)]; subs=[{ blab="L89"; elab="L90"; names=[]; subs=[]; }]; }; { blab="L78"; elab="L79"; names=[("s", 0)]; subs=[{ blab="L80"; elab="L81"; names=[]; subs=[]; }]; }; { blab="L70"; elab="L71"; names=[]; subs=[{ blab="L72"; elab="L73"; names=[]; subs=[]; }]; }; { blab="L62"; elab="L63"; names=[]; subs=[{ blab="L64"; elab="L65"; names=[]; subs=[]; }]; }]; }]; }]) / 

	.type showSMInsn, @function

	.stabs "showSMInsn:F1",36,0,0,LshowSMInsn

	.stabs "i:p1",160,0,0,8

	.stabs "n:1",128,0,0,-4

	.stabn 192,0,0,L104-LshowSMInsn

	.stabn 224,0,0,L105-LshowSMInsn

	.stabs "x:1",128,0,0,-4

	.stabn 192,0,0,L96-LshowSMInsn

	.stabn 224,0,0,L97-LshowSMInsn

	.stabs "x:1",128,0,0,-4

	.stabn 192,0,0,L87-LshowSMInsn

	.stabn 224,0,0,L88-LshowSMInsn

	.stabs "s:1",128,0,0,-4

	.stabn 192,0,0,L78-LshowSMInsn

	.stabn 224,0,0,L79-LshowSMInsn

	.cfi_startproc

	pushl	%ebp
	.cfi_def_cfa_offset	8

	.cfi_offset 5, -8

	movl	%esp,	%ebp
	.cfi_def_cfa_register	5

	subl	$LLshowSMInsn_SIZE,	%esp
	movl	%esp,	%edi
	movl	$filler,	%esi
	movl	$LSLshowSMInsn_SIZE,	%ecx
	rep movsl	
# SLABEL ("L52") / 

L52:

# SLABEL ("L55") / 

L55:

# LINE (13) / 

	.stabn 68,0,13,0

	.stabn 68,0,13,.L7-LshowSMInsn

.L7:

# LD (Arg (0)) / 

	movl	8(%ebp),	%ebx
# DUP / 

	movl	%ebx,	%ecx
# SLABEL ("L62") / 

L62:

# DUP / 

	movl	%ecx,	%esi
# TAG ("READ", 0) / 

	movl	$23326141,	%edi
	movl	$1,	-8(%ebp)
	pushl	%ebx
	pushl	%ecx
	pushl	-8(%ebp)
	pushl	%edi
	pushl	%esi
	call	Btag
	addl	$12,	%esp
	popl	%ecx
	popl	%ebx
	movl	%eax,	%esi
# CJMP ("nz", "L60") / 

	sarl	%esi
	cmpl	$0,	%esi
	jnz	L60
# LABEL ("L61") / 

L61:

# DROP / 

# JMP ("L59") / 

	jmp	L59
# LABEL ("L60") / 

L60:

# DROP / 

# DROP / 

# SLABEL ("L64") / 

L64:

# LINE (14) / 

	.stabn 68,0,14,.L8-LshowSMInsn

.L8:

# STRING ("READ") / 

	movl	$string_4,	%ebx
	pushl	%ebx
	call	Bstring
	addl	$4,	%esp
	movl	%eax,	%ebx
# CALL ("Lsprintf", 1, true) / 

	movl	%ebx,	8(%ebp)
	movl	%ebp,	%esp
	popl	%ebp
	jmp	Lsprintf
# SLABEL ("L65") / 

L65:

# JMP ("L54") / 

	jmp	L54
# SLABEL ("L63") / 

L63:

# SLABEL ("L70") / 

L70:

# LABEL ("L59") / 

L59:

# DUP / 

	movl	%ebx,	%ecx
# DUP / 

	movl	%ecx,	%esi
# TAG ("WRITE", 0) / 

	movl	$1667528511,	%edi
	movl	$1,	-8(%ebp)
	pushl	%ebx
	pushl	%ecx
	pushl	-8(%ebp)
	pushl	%edi
	pushl	%esi
	call	Btag
	addl	$12,	%esp
	popl	%ecx
	popl	%ebx
	movl	%eax,	%esi
# CJMP ("nz", "L68") / 

	sarl	%esi
	cmpl	$0,	%esi
	jnz	L68
# LABEL ("L69") / 

L69:

# DROP / 

# JMP ("L67") / 

	jmp	L67
# LABEL ("L68") / 

L68:

# DROP / 

# DROP / 

# SLABEL ("L72") / 

L72:

# LINE (15) / 

	.stabn 68,0,15,.L9-LshowSMInsn

.L9:

# STRING ("WRITE") / 

	movl	$string_5,	%ebx
	pushl	%ebx
	call	Bstring
	addl	$4,	%esp
	movl	%eax,	%ebx
# CALL ("Lsprintf", 1, true) / 

	movl	%ebx,	8(%ebp)
	movl	%ebp,	%esp
	popl	%ebp
	jmp	Lsprintf
# SLABEL ("L73") / 

L73:

# JMP ("L54") / 

	jmp	L54
# SLABEL ("L71") / 

L71:

# SLABEL ("L78") / 

L78:

# LABEL ("L67") / 

L67:

# DUP / 

	movl	%ebx,	%ecx
# DUP / 

	movl	%ecx,	%esi
# TAG ("BINOP", 1) / 

	movl	$958207189,	%edi
	movl	$3,	-8(%ebp)
	pushl	%ebx
	pushl	%ecx
	pushl	-8(%ebp)
	pushl	%edi
	pushl	%esi
	call	Btag
	addl	$12,	%esp
	popl	%ecx
	popl	%ebx
	movl	%eax,	%esi
# CJMP ("nz", "L76") / 

	sarl	%esi
	cmpl	$0,	%esi
	jnz	L76
# LABEL ("L77") / 

L77:

# DROP / 

# JMP ("L75") / 

	jmp	L75
# LABEL ("L76") / 

L76:

# DUP / 

	movl	%ecx,	%esi
# CONST (0) / 

	movl	$1,	%edi
# ELEM / 

	pushl	%ebx
	pushl	%ecx
	pushl	%edi
	pushl	%esi
	call	Belem
	addl	$8,	%esp
	popl	%ecx
	popl	%ebx
	movl	%eax,	%esi
# DROP / 

# DROP / 

# DUP / 

	movl	%ebx,	%ecx
# CONST (0) / 

	movl	$1,	%esi
# ELEM / 

	pushl	%ebx
	pushl	%esi
	pushl	%ecx
	call	Belem
	addl	$8,	%esp
	popl	%ebx
	movl	%eax,	%ecx
# ST (Local (0)) / 

	movl	%ecx,	-4(%ebp)
# DROP / 

# DROP / 

# SLABEL ("L80") / 

L80:

# LINE (16) / 

	.stabn 68,0,16,.L10-LshowSMInsn

.L10:

# STRING ("BINOP %s") / 

	movl	$string_6,	%ebx
	pushl	%ebx
	call	Bstring
	addl	$4,	%esp
	movl	%eax,	%ebx
# LD (Local (0)) / 

	movl	-4(%ebp),	%ecx
# CALL ("Lsprintf", 2, true) / 

	pushl	%ecx
	pushl	%ebx
	call	Lsprintf
	addl	$8,	%esp
	movl	%eax,	%ebx
# SLABEL ("L81") / 

L81:

# JMP ("L54") / 

	jmp	L54
# SLABEL ("L79") / 

L79:

# SLABEL ("L87") / 

L87:

# LABEL ("L75") / 

L75:

# DUP / 

	movl	%ebx,	%ecx
# DUP / 

	movl	%ecx,	%esi
# TAG ("LD", 1) / 

	movl	$4925,	%edi
	movl	$3,	-8(%ebp)
	pushl	%ebx
	pushl	%ecx
	pushl	-8(%ebp)
	pushl	%edi
	pushl	%esi
	call	Btag
	addl	$12,	%esp
	popl	%ecx
	popl	%ebx
	movl	%eax,	%esi
# CJMP ("nz", "L85") / 

	sarl	%esi
	cmpl	$0,	%esi
	jnz	L85
# LABEL ("L86") / 

L86:

# DROP / 

# JMP ("L84") / 

	jmp	L84
# LABEL ("L85") / 

L85:

# DUP / 

	movl	%ecx,	%esi
# CONST (0) / 

	movl	$1,	%edi
# ELEM / 

	pushl	%ebx
	pushl	%ecx
	pushl	%edi
	pushl	%esi
	call	Belem
	addl	$8,	%esp
	popl	%ecx
	popl	%ebx
	movl	%eax,	%esi
# DROP / 

# DROP / 

# DUP / 

	movl	%ebx,	%ecx
# CONST (0) / 

	movl	$1,	%esi
# ELEM / 

	pushl	%ebx
	pushl	%esi
	pushl	%ecx
	call	Belem
	addl	$8,	%esp
	popl	%ebx
	movl	%eax,	%ecx
# ST (Local (0)) / 

	movl	%ecx,	-4(%ebp)
# DROP / 

# DROP / 

# SLABEL ("L89") / 

L89:

# LINE (17) / 

	.stabn 68,0,17,.L11-LshowSMInsn

.L11:

# STRING ("LD %s") / 

	movl	$string_7,	%ebx
	pushl	%ebx
	call	Bstring
	addl	$4,	%esp
	movl	%eax,	%ebx
# LD (Local (0)) / 

	movl	-4(%ebp),	%ecx
# CALL ("Lsprintf", 2, true) / 

	pushl	%ecx
	pushl	%ebx
	call	Lsprintf
	addl	$8,	%esp
	movl	%eax,	%ebx
# SLABEL ("L90") / 

L90:

# JMP ("L54") / 

	jmp	L54
# SLABEL ("L88") / 

L88:

# SLABEL ("L96") / 

L96:

# LABEL ("L84") / 

L84:

# DUP / 

	movl	%ebx,	%ecx
# DUP / 

	movl	%ecx,	%esi
# TAG ("ST", 1) / 

	movl	$5853,	%edi
	movl	$3,	-8(%ebp)
	pushl	%ebx
	pushl	%ecx
	pushl	-8(%ebp)
	pushl	%edi
	pushl	%esi
	call	Btag
	addl	$12,	%esp
	popl	%ecx
	popl	%ebx
	movl	%eax,	%esi
# CJMP ("nz", "L94") / 

	sarl	%esi
	cmpl	$0,	%esi
	jnz	L94
# LABEL ("L95") / 

L95:

# DROP / 

# JMP ("L93") / 

	jmp	L93
# LABEL ("L94") / 

L94:

# DUP / 

	movl	%ecx,	%esi
# CONST (0) / 

	movl	$1,	%edi
# ELEM / 

	pushl	%ebx
	pushl	%ecx
	pushl	%edi
	pushl	%esi
	call	Belem
	addl	$8,	%esp
	popl	%ecx
	popl	%ebx
	movl	%eax,	%esi
# DROP / 

# DROP / 

# DUP / 

	movl	%ebx,	%ecx
# CONST (0) / 

	movl	$1,	%esi
# ELEM / 

	pushl	%ebx
	pushl	%esi
	pushl	%ecx
	call	Belem
	addl	$8,	%esp
	popl	%ebx
	movl	%eax,	%ecx
# ST (Local (0)) / 

	movl	%ecx,	-4(%ebp)
# DROP / 

# DROP / 

# SLABEL ("L98") / 

L98:

# LINE (18) / 

	.stabn 68,0,18,.L12-LshowSMInsn

.L12:

# STRING ("ST %s") / 

	movl	$string_8,	%ebx
	pushl	%ebx
	call	Bstring
	addl	$4,	%esp
	movl	%eax,	%ebx
# LD (Local (0)) / 

	movl	-4(%ebp),	%ecx
# CALL ("Lsprintf", 2, true) / 

	pushl	%ecx
	pushl	%ebx
	call	Lsprintf
	addl	$8,	%esp
	movl	%eax,	%ebx
# SLABEL ("L99") / 

L99:

# JMP ("L54") / 

	jmp	L54
# SLABEL ("L97") / 

L97:

# SLABEL ("L104") / 

L104:

# LABEL ("L93") / 

L93:

# DUP / 

	movl	%ebx,	%ecx
# DUP / 

	movl	%ecx,	%esi
# TAG ("CONST", 1) / 

	movl	$994907869,	%edi
	movl	$3,	-8(%ebp)
	pushl	%ebx
	pushl	%ecx
	pushl	-8(%ebp)
	pushl	%edi
	pushl	%esi
	call	Btag
	addl	$12,	%esp
	popl	%ecx
	popl	%ebx
	movl	%eax,	%esi
# CJMP ("nz", "L102") / 

	sarl	%esi
	cmpl	$0,	%esi
	jnz	L102
# LABEL ("L103") / 

L103:

# DROP / 

# JMP ("L57") / 

	jmp	L57
# LABEL ("L102") / 

L102:

# DUP / 

	movl	%ecx,	%esi
# CONST (0) / 

	movl	$1,	%edi
# ELEM / 

	pushl	%ebx
	pushl	%ecx
	pushl	%edi
	pushl	%esi
	call	Belem
	addl	$8,	%esp
	popl	%ecx
	popl	%ebx
	movl	%eax,	%esi
# DROP / 

# DROP / 

# DUP / 

	movl	%ebx,	%ecx
# CONST (0) / 

	movl	$1,	%esi
# ELEM / 

	pushl	%ebx
	pushl	%esi
	pushl	%ecx
	call	Belem
	addl	$8,	%esp
	popl	%ebx
	movl	%eax,	%ecx
# ST (Local (0)) / 

	movl	%ecx,	-4(%ebp)
# DROP / 

# DROP / 

# SLABEL ("L106") / 

L106:

# LINE (19) / 

	.stabn 68,0,19,.L13-LshowSMInsn

.L13:

# STRING ("CONST %d") / 

	movl	$string_9,	%ebx
	pushl	%ebx
	call	Bstring
	addl	$4,	%esp
	movl	%eax,	%ebx
# LD (Local (0)) / 

	movl	-4(%ebp),	%ecx
# CALL ("Lsprintf", 2, true) / 

	pushl	%ecx
	pushl	%ebx
	call	Lsprintf
	addl	$8,	%esp
	movl	%eax,	%ebx
# SLABEL ("L107") / 

L107:

# SLABEL ("L105") / 

L105:

# JMP ("L54") / 

	jmp	L54
# LABEL ("L57") / 

L57:

# FAIL ((13, 7), true) / 

	pushl	$15
	pushl	$27
	pushl	$string_10
	pushl	%ebx
	call	Bmatch_failure
	addl	$16,	%esp
# JMP ("L54") / 

	jmp	L54
# SLABEL ("L56") / 

L56:

# LABEL ("L54") / 

L54:

# SLABEL ("L53") / 

L53:

# END / 

	movl	%ebx,	%eax
LLshowSMInsn_epilogue:

	movl	%ebp,	%esp
	popl	%ebp
	.cfi_restore	5

	.cfi_def_cfa	4, 4

	ret
	.cfi_endproc

	.set	LLshowSMInsn_SIZE,	8

	.set	LSLshowSMInsn_SIZE,	2

	.size LshowSMInsn, .-LshowSMInsn

